Certificate:
    Data:
        Version: 3 (0x2)
        Serial Number: 305419897 (0x12345679)
        Signature Algorithm: sha256WithRSAEncryption
        Issuer: CN=SRK1_sha256_4096_65537_v3_ca
        Validity
            Not Before: Apr 22 13:10:15 2026 GMT
            Not After : Apr 17 13:10:15 2046 GMT
        Subject: CN=CSF1_1_sha256_4096_65537_v3_usr
        Subject Public Key Info:
            Public Key Algorithm: rsaEncryption
                Public-Key: (4096 bit)
                Modulus:
                    00:c2:6c:bd:ea:ae:bb:ef:2f:57:84:68:bb:b1:e7:
                    6e:72:8f:b1:39:b9:96:58:2f:6c:e6:c6:10:50:a3:
                    db:64:4d:11:89:54:0d:cf:08:f8:fa:65:96:c7:44:
                    79:40:41:e5:9b:0f:2a:f3:4e:a7:b8:38:ba:4c:8b:
                    f3:32:ee:d8:71:84:f4:d4:d7:72:c9:cc:67:6b:70:
                    27:33:6e:0f:d2:2b:4a:d0:04:69:08:ff:b6:91:84:
                    b1:15:84:4d:1a:92:76:5b:ba:5a:e2:b9:ba:8b:53:
                    20:61:06:ca:6e:d4:22:ae:44:9a:65:cb:e9:31:c6:
                    ec:fc:14:50:f1:f7:47:58:85:6b:72:cb:02:06:01:
                    1d:a4:a5:fa:6f:cc:ea:97:df:0d:11:c6:92:ac:e9:
                    ee:a1:02:8b:2c:cf:2a:bc:9d:38:f0:7b:ae:94:42:
                    cc:f6:2a:ff:11:f4:1b:48:58:4c:68:0d:42:05:9e:
                    9f:b8:9e:12:47:77:c2:6f:cf:9d:47:df:f0:e0:d0:
                    4d:18:8c:a4:36:32:af:bb:15:b4:a4:6e:41:44:c8:
                    06:ad:83:36:6b:49:4e:50:2a:98:6b:99:e2:53:19:
                    48:40:ff:0e:99:56:0a:30:25:a2:5a:ea:11:86:86:
                    b1:9f:f8:00:3c:72:04:08:bf:07:76:d9:45:e6:3f:
                    72:5d:d6:ee:d3:71:10:e8:d9:68:b4:66:d7:de:4a:
                    73:90:db:74:a1:2d:a0:3b:68:84:8e:dd:bf:b3:0e:
                    4d:f9:28:c3:fa:8a:cd:1a:7f:43:3e:35:be:c5:dc:
                    53:6e:83:ca:2d:0f:63:60:29:65:fd:0b:cf:c2:c2:
                    79:dc:4f:2f:10:df:c3:1d:a8:7d:fa:20:a0:bb:36:
                    48:18:4e:05:da:ef:a8:2b:6d:61:d1:20:1c:4e:d6:
                    c4:d2:24:31:71:25:fe:d5:a9:51:be:75:91:2d:86:
                    7e:51:ec:5a:e4:0f:72:3a:b1:fa:96:67:7d:51:f8:
                    11:ca:38:36:99:78:26:d4:5c:00:52:e1:b2:eb:95:
                    1d:d4:a8:e8:f1:ca:00:50:0d:61:9f:14:fb:e5:82:
                    38:83:06:4a:0a:ba:c2:79:3e:25:b6:63:dd:a3:b7:
                    32:4e:fc:21:31:b9:12:a1:96:b5:ba:57:ca:79:2d:
                    32:d4:1b:d0:4b:16:1a:18:f0:60:97:1f:a7:9a:d2:
                    8f:80:30:2b:c1:5e:2c:9f:05:4f:20:76:ec:15:9b:
                    2d:7c:8e:81:ae:02:e6:0a:be:2f:9c:e8:f8:12:49:
                    d9:43:7d:bf:45:97:30:e7:00:6e:43:c0:25:59:23:
                    6b:68:5c:92:a8:b3:2e:d4:b1:02:f8:41:96:6b:bc:
                    cb:71:7b
                Exponent: 65537 (0x10001)
        X509v3 extensions:
            X509v3 Basic Constraints: 
                CA:FALSE
            Netscape Comment: 
                OpenSSL Generated Certificate
            X509v3 Subject Key Identifier: 
                0B:35:BC:27:6C:10:AE:5B:6F:32:3D:4F:66:07:EB:7C:79:C7:C4:19
            X509v3 Authority Key Identifier: 
                14:67:7C:C3:98:BE:CD:27:30:1B:20:47:AE:78:B5:40:B1:9E:3B:47
    Signature Algorithm: sha256WithRSAEncryption
    Signature Value:
        d8:f2:2d:fd:60:9c:07:9d:90:22:30:aa:f2:ad:74:13:24:d2:
        e7:07:db:b0:8f:f0:71:e4:01:e0:e6:fd:80:bc:58:5d:23:67:
        69:e8:f4:fa:3e:d1:eb:62:61:0c:cc:24:54:5d:17:30:f4:49:
        ad:fe:d8:71:73:d5:c6:e9:10:72:22:c4:f9:3e:da:4d:fb:fd:
        1c:b6:83:07:3f:13:07:c9:47:d5:44:13:27:a9:ff:d1:c8:a4:
        f2:6e:11:7a:d4:df:b6:b6:2c:09:8f:9c:ad:11:93:14:5b:8b:
        7d:d3:46:78:b1:10:d4:4b:10:43:dd:e4:c0:e8:3a:54:33:ec:
        92:74:b0:d8:03:90:1a:26:27:17:c2:6f:1d:d8:84:9c:46:1a:
        5b:32:d3:e4:00:1b:d9:67:9f:ef:3d:dd:a3:3d:cb:65:99:dd:
        fc:f1:3a:8d:76:68:6c:49:02:cf:16:95:26:c0:32:82:1f:8e:
        ba:6c:a7:19:5a:7c:b6:be:09:cc:5c:a8:bb:65:83:4e:47:d1:
        66:db:3c:63:05:c6:25:2e:a0:8e:8d:9c:65:ab:46:a2:34:57:
        43:86:ff:8e:f2:e3:ed:29:82:22:a8:b8:32:4b:34:72:88:a8:
        e2:89:1f:b5:7d:2c:95:b0:bf:8e:0f:35:c4:f4:2b:aa:8f:f8:
        4f:cb:9b:f5:62:c2:f1:25:a2:fa:76:f5:86:9f:96:2f:bc:db:
        e3:58:09:5e:4e:70:b9:b3:e1:86:37:ee:f1:01:81:9c:c5:40:
        9f:d3:3e:9a:b0:69:bc:d6:6d:4c:70:22:b5:42:02:6e:00:2a:
        4e:5f:3a:0a:14:b8:91:3c:b8:bc:ea:9b:cf:f3:e1:0b:00:84:
        61:a2:8e:1f:ed:64:38:ad:1c:74:b7:e6:2c:1d:1e:6a:cf:fe:
        44:9c:4e:11:e1:e7:a6:aa:8f:df:1a:e3:23:0f:5f:d9:7e:42:
        4a:36:92:4e:0e:ac:e3:ae:f9:1b:cf:30:39:ec:9c:1a:17:d0:
        76:96:4b:ed:a9:6e:50:41:46:40:17:16:18:1c:5d:a9:1b:31:
        a2:c0:88:ad:a8:cc:51:53:14:35:8d:7a:12:95:8e:b4:63:51:
        e8:a8:50:29:46:48:9d:cd:33:da:d8:b5:90:c3:89:2b:2b:a0:
        a8:2b:98:65:f0:77:99:d8:28:b9:b9:8d:3d:c7:99:98:0d:95:
        50:06:25:1e:8d:dd:cf:7c:82:b6:7e:ae:7f:10:ad:ff:a1:18:
        f0:a2:ad:06:ab:0b:42:d0:09:45:57:4b:7c:a4:2b:d8:18:01:
        ba:ba:6f:58:0d:bd:3b:09:d6:36:97:bc:1c:b9:ca:a7:67:17:
        58:45:ef:55:11:cf:a8:1b
-----BEGIN CERTIFICATE-----
MIIFSjCCAzKgAwIBAgIEEjRWeTANBgkqhkiG9w0BAQsFADAnMSUwIwYDVQQDDBxT
UksxX3NoYTI1Nl80MDk2XzY1NTM3X3YzX2NhMB4XDTI2MDQyMjEzMTAxNVoXDTQ2
MDQxNzEzMTAxNVowKjEoMCYGA1UEAwwfQ1NGMV8xX3NoYTI1Nl80MDk2XzY1NTM3
X3YzX3VzcjCCAiIwDQYJKoZIhvcNAQEBBQADggIPADCCAgoCggIBAMJsvequu+8v
V4Rou7HnbnKPsTm5llgvbObGEFCj22RNEYlUDc8I+PpllsdEeUBB5ZsPKvNOp7g4
ukyL8zLu2HGE9NTXcsnMZ2twJzNuD9IrStAEaQj/tpGEsRWETRqSdlu6WuK5uotT
IGEGym7UIq5EmmXL6THG7PwUUPH3R1iFa3LLAgYBHaSl+m/M6pffDRHGkqzp7qEC
iyzPKrydOPB7rpRCzPYq/xH0G0hYTGgNQgWen7ieEkd3wm/PnUff8ODQTRiMpDYy
r7sVtKRuQUTIBq2DNmtJTlAqmGuZ4lMZSED/DplWCjAlolrqEYaGsZ/4ADxyBAi/
B3bZReY/cl3W7tNxEOjZaLRm195Kc5DbdKEtoDtohI7dv7MOTfkow/qKzRp/Qz41
vsXcU26Dyi0PY2ApZf0Lz8LCedxPLxDfwx2offogoLs2SBhOBdrvqCttYdEgHE7W
xNIkMXEl/tWpUb51kS2GflHsWuQPcjqx+pZnfVH4Eco4Npl4JtRcAFLhsuuVHdSo
6PHKAFANYZ8U++WCOIMGSgq6wnk+JbZj3aO3Mk78ITG5EqGWtbpXynktMtQb0EsW
GhjwYJcfp5rSj4AwK8FeLJ8FTyB27BWbLXyOga4C5gq+L5zo+BJJ2UN9v0WXMOcA
bkPAJVkja2hckqizLtSxAvhBlmu8y3F7AgMBAAGjezB5MAkGA1UdEwQCMAAwLAYJ
YIZIAYb4QgENBB8WHU9wZW5TU0wgR2VuZXJhdGVkIENlcnRpZmljYXRlMB0GA1Ud
DgQWBBQLNbwnbBCuW28yPU9mB+t8ecfEGTAfBgNVHSMEGDAWgBQUZ3zDmL7NJzAb
IEeueLVAsZ47RzANBgkqhkiG9w0BAQsFAAOCAgEA2PIt/WCcB52QIjCq8q10EyTS
5wfbsI/wceQB4Ob9gLxYXSNnaej0+j7R62JhDMwkVF0XMPRJrf7YcXPVxukQciLE
+T7aTfv9HLaDBz8TB8lH1UQTJ6n/0cik8m4RetTftrYsCY+crRGTFFuLfdNGeLEQ
1EsQQ93kwOg6VDPsknSw2AOQGiYnF8JvHdiEnEYaWzLT5AAb2Wef7z3doz3LZZnd
/PE6jXZobEkCzxaVJsAygh+OumynGVp8tr4JzFyou2WDTkfRZts8YwXGJS6gjo2c
ZatGojRXQ4b/jvLj7SmCIqi4Mks0coio4okftX0slbC/jg81xPQrqo/4T8ub9WLC
8SWi+nb1hp+WL7zb41gJXk5wubPhhjfu8QGBnMVAn9M+mrBpvNZtTHAitUICbgAq
Tl86ChS4kTy4vOqbz/PhCwCEYaKOH+1kOK0cdLfmLB0eas/+RJxOEeHnpqqP3xrj
Iw9f2X5CSjaSTg6s4675G88wOeycGhfQdpZL7aluUEFGQBcWGBxdqRsxosCIrajM
UVMUNY16EpWOtGNR6KhQKUZInc0z2ti1kMOJKyugqCuYZfB3mdgoubmNPceZmA2V
UAYlHo3dz3yCtn6ufxCt/6EY8KKtBqsLQtAJRVdLfKQr2BgBurpvWA29OwnWNpe8
HLnKp2cXWEXvVRHPqBs=
-----END CERTIFICATE-----
