Certificate:
    Data:
        Version: 3 (0x2)
        Serial Number: 305419903 (0x1234567f)
        Signature Algorithm: sha256WithRSAEncryption
        Issuer: CN=SRK3_sha256_4096_65537_v3_ca
        Validity
            Not Before: Apr 22 13:10:17 2026 GMT
            Not After : Apr 17 13:10:17 2046 GMT
        Subject: CN=CSF3_1_sha256_4096_65537_v3_usr
        Subject Public Key Info:
            Public Key Algorithm: rsaEncryption
                Public-Key: (4096 bit)
                Modulus:
                    00:da:54:07:53:aa:4a:ab:aa:4a:f5:7a:b3:e4:e0:
                    5b:44:0b:73:45:66:70:7f:3b:6b:5b:e1:78:25:33:
                    99:84:47:a7:66:04:a7:89:65:81:a5:26:70:0c:86:
                    a9:81:ce:df:35:ed:d3:14:aa:0a:7c:30:c4:17:f1:
                    be:be:ce:8c:28:39:c8:ac:3e:24:83:aa:b9:55:5a:
                    b3:a4:df:7e:a4:4b:d1:64:31:4e:80:9f:48:cd:16:
                    7b:a1:2c:59:3f:cd:96:f6:ba:1d:25:c1:87:a4:6c:
                    33:8f:05:d8:7f:61:d8:2b:77:c9:3a:fb:46:c8:04:
                    8f:be:fb:e9:75:c2:7f:b5:0e:75:94:34:15:b2:29:
                    4b:7f:a2:04:13:ae:74:91:da:68:2e:0f:d6:f2:e8:
                    eb:70:9c:f4:98:8c:5b:12:c8:0d:0d:de:4b:dc:ac:
                    93:2b:e7:c0:cc:a4:3b:2a:e0:fe:82:51:75:c6:f1:
                    2c:5f:dc:81:56:ea:25:44:3f:ae:63:ab:73:1e:ff:
                    00:30:0c:7a:b7:1a:1d:d2:6e:a8:f5:e4:88:22:82:
                    ef:e9:77:36:17:28:50:82:ed:ff:c6:c3:e1:c6:12:
                    82:e4:ee:58:22:4d:34:e7:d3:07:8e:88:1b:ee:fa:
                    3d:5d:d5:90:dc:c9:02:c2:67:90:db:8b:be:57:ca:
                    b3:4a:03:27:80:7c:5d:b7:48:50:50:e1:b2:dc:5c:
                    2e:62:48:1d:de:45:a7:70:87:2e:3d:61:a7:99:30:
                    57:c6:0a:fb:fa:76:3b:f1:98:f0:cc:b0:65:71:26:
                    8e:66:2a:d6:0b:e7:bd:91:bc:d2:b8:34:c8:fc:d2:
                    a7:0d:88:dc:72:ba:91:3e:36:67:1d:c3:32:9a:24:
                    9a:50:a1:cd:be:8e:3b:4e:76:7a:de:62:bf:b8:06:
                    38:f2:68:82:5b:cd:e3:b6:eb:24:d7:8f:64:29:85:
                    e3:89:5d:2e:fe:77:4b:6e:b5:73:e5:54:ae:65:ef:
                    eb:6f:09:84:ca:b3:55:6d:fd:98:16:9d:a6:16:5d:
                    d3:d1:6c:7f:9d:be:07:9f:06:60:25:89:56:c3:ac:
                    9e:75:da:94:bf:24:7d:34:4b:21:c5:04:05:19:7a:
                    da:5f:2b:b5:1c:a5:10:2f:d2:03:ea:d8:e6:3e:86:
                    74:fb:5e:ea:6f:c7:ae:e8:e0:04:b3:82:25:06:8c:
                    23:fa:e0:ae:e9:c3:e2:69:d4:6a:79:19:dc:a3:26:
                    cc:53:cb:fa:81:8d:8c:6e:a2:7f:d6:40:2b:b4:54:
                    80:71:84:20:ac:bf:68:bb:50:57:8c:2a:38:09:af:
                    9b:1c:06:29:ea:1e:95:86:88:7e:a4:d6:57:d7:c3:
                    a8:c9:7f
                Exponent: 65537 (0x10001)
        X509v3 extensions:
            X509v3 Basic Constraints: 
                CA:FALSE
            Netscape Comment: 
                OpenSSL Generated Certificate
            X509v3 Subject Key Identifier: 
                2F:E2:4B:94:9E:88:41:B4:F3:2E:08:CA:C5:4E:A9:A8:24:7E:4F:0E
            X509v3 Authority Key Identifier: 
                3B:2F:59:FF:97:D6:FA:6F:96:38:7D:77:DD:47:0F:F5:85:8B:C6:C2
    Signature Algorithm: sha256WithRSAEncryption
    Signature Value:
        b4:dd:e8:2b:c6:de:00:c5:b3:90:55:a4:47:b5:bc:70:b9:bf:
        4d:cd:f7:13:de:25:18:b3:dd:bd:3f:c2:13:41:9d:f2:3f:ca:
        44:5e:2b:fd:e4:74:2c:83:5a:80:e2:44:ad:ed:53:04:0d:ba:
        c7:ab:4a:34:f0:5f:63:16:d5:89:69:51:4e:17:8f:81:04:7b:
        85:bc:c9:3a:52:5d:d5:56:15:56:22:d6:d1:43:58:54:15:6c:
        d2:26:ae:e2:7c:6f:c6:fa:b8:09:c1:ea:dd:57:9a:c6:91:d8:
        3c:e6:09:6a:41:a3:a8:39:e8:6f:e5:d6:03:a3:1e:0b:d5:de:
        6e:6c:d9:c0:ef:65:38:f0:ad:5e:d2:23:cc:7c:67:d8:c5:a9:
        1e:05:30:2b:99:fd:55:ac:39:c8:55:19:83:d7:c6:69:da:f5:
        57:f2:de:f2:56:81:c4:f8:0a:a0:e3:81:79:d9:7c:30:26:aa:
        4b:b4:47:b8:bd:10:fb:a3:22:31:e3:05:86:b9:5c:50:da:c7:
        6a:63:2d:19:e0:2e:51:0c:f6:08:45:6f:87:d0:79:77:5c:e9:
        b8:af:e1:70:71:7e:f1:c9:c7:e1:cc:98:0b:e1:d0:dd:12:5c:
        e5:27:27:15:91:d7:fa:af:f7:b2:83:f6:f2:d4:ff:14:a7:1f:
        d7:eb:b8:a3:dd:88:f8:0f:54:a9:cc:a5:b4:1e:4d:7f:f1:86:
        5c:37:fa:bf:36:97:07:8a:ad:77:db:82:a6:81:fa:8b:7a:7e:
        46:f5:42:fe:59:7e:d4:fb:c4:74:d6:a3:fb:08:01:21:d6:42:
        56:e9:8d:db:a2:10:17:be:74:ad:b7:27:1c:b9:75:a1:41:e1:
        15:38:a9:e4:d7:10:e9:cc:1c:ef:69:8d:1b:61:54:85:8a:28:
        54:63:31:28:d0:34:26:a3:8d:02:ec:ca:8c:2d:bb:84:6f:7c:
        50:fb:0e:78:bf:db:9c:10:cf:d7:16:c0:41:6e:01:06:fc:a1:
        9d:47:e3:a6:b6:ee:15:f9:f8:d6:b5:72:cd:16:1b:8a:1e:3f:
        f6:7f:d9:53:32:61:68:e6:c9:0a:47:e0:91:81:14:8d:af:8a:
        fb:b7:d3:83:03:f4:69:a8:ee:fe:be:8b:0a:6b:e7:42:1f:57:
        cd:36:6c:e9:1a:38:73:52:a5:83:24:d1:13:6a:82:a3:5a:03:
        b1:95:d2:7d:49:5f:e4:3a:d7:e2:78:cb:67:51:01:43:b1:1e:
        06:10:2d:c9:92:6c:e0:6b:e2:84:de:3f:69:03:47:bf:ad:70:
        80:8f:76:82:c0:6c:de:da:f1:05:08:95:18:00:90:c7:6c:27:
        22:96:17:a3:d5:59:a5:d7
-----BEGIN CERTIFICATE-----
MIIFSjCCAzKgAwIBAgIEEjRWfzANBgkqhkiG9w0BAQsFADAnMSUwIwYDVQQDDBxT
UkszX3NoYTI1Nl80MDk2XzY1NTM3X3YzX2NhMB4XDTI2MDQyMjEzMTAxN1oXDTQ2
MDQxNzEzMTAxN1owKjEoMCYGA1UEAwwfQ1NGM18xX3NoYTI1Nl80MDk2XzY1NTM3
X3YzX3VzcjCCAiIwDQYJKoZIhvcNAQEBBQADggIPADCCAgoCggIBANpUB1OqSquq
SvV6s+TgW0QLc0VmcH87a1vheCUzmYRHp2YEp4llgaUmcAyGqYHO3zXt0xSqCnww
xBfxvr7OjCg5yKw+JIOquVVas6TffqRL0WQxToCfSM0We6EsWT/Nlva6HSXBh6Rs
M48F2H9h2Ct3yTr7RsgEj7776XXCf7UOdZQ0FbIpS3+iBBOudJHaaC4P1vLo63Cc
9JiMWxLIDQ3eS9yskyvnwMykOyrg/oJRdcbxLF/cgVbqJUQ/rmOrcx7/ADAMerca
HdJuqPXkiCKC7+l3NhcoUILt/8bD4cYSguTuWCJNNOfTB46IG+76PV3VkNzJAsJn
kNuLvlfKs0oDJ4B8XbdIUFDhstxcLmJIHd5Fp3CHLj1hp5kwV8YK+/p2O/GY8Myw
ZXEmjmYq1gvnvZG80rg0yPzSpw2I3HK6kT42Zx3DMpokmlChzb6OO052et5iv7gG
OPJoglvN47brJNePZCmF44ldLv53S261c+VUrmXv628JhMqzVW39mBadphZd09Fs
f52+B58GYCWJVsOsnnXalL8kfTRLIcUEBRl62l8rtRylEC/SA+rY5j6GdPte6m/H
rujgBLOCJQaMI/rgrunD4mnUankZ3KMmzFPL+oGNjG6if9ZAK7RUgHGEIKy/aLtQ
V4wqOAmvmxwGKeoelYaIfqTWV9fDqMl/AgMBAAGjezB5MAkGA1UdEwQCMAAwLAYJ
YIZIAYb4QgENBB8WHU9wZW5TU0wgR2VuZXJhdGVkIENlcnRpZmljYXRlMB0GA1Ud
DgQWBBQv4kuUnohBtPMuCMrFTqmoJH5PDjAfBgNVHSMEGDAWgBQ7L1n/l9b6b5Y4
fXfdRw/1hYvGwjANBgkqhkiG9w0BAQsFAAOCAgEAtN3oK8beAMWzkFWkR7W8cLm/
Tc33E94lGLPdvT/CE0Gd8j/KRF4r/eR0LINagOJEre1TBA26x6tKNPBfYxbViWlR
ThePgQR7hbzJOlJd1VYVViLW0UNYVBVs0iau4nxvxvq4CcHq3VeaxpHYPOYJakGj
qDnob+XWA6MeC9XebmzZwO9lOPCtXtIjzHxn2MWpHgUwK5n9Vaw5yFUZg9fGadr1
V/Le8laBxPgKoOOBedl8MCaqS7RHuL0Q+6MiMeMFhrlcUNrHamMtGeAuUQz2CEVv
h9B5d1zpuK/hcHF+8cnH4cyYC+HQ3RJc5ScnFZHX+q/3soP28tT/FKcf1+u4o92I
+A9UqcyltB5Nf/GGXDf6vzaXB4qtd9uCpoH6i3p+RvVC/ll+1PvEdNaj+wgBIdZC
VumN26IQF750rbcnHLl1oUHhFTip5NcQ6cwc72mNG2FUhYooVGMxKNA0JqONAuzK
jC27hG98UPsOeL/bnBDP1xbAQW4BBvyhnUfjprbuFfn41rVyzRYbih4/9n/ZUzJh
aObJCkfgkYEUja+K+7fTgwP0aaju/r6LCmvnQh9XzTZs6Ro4c1KlgyTRE2qCo1oD
sZXSfUlf5DrX4njLZ1EBQ7EeBhAtyZJs4GvihN4/aQNHv61wgI92gsBs3trxBQiV
GACQx2wnIpYXo9VZpdc=
-----END CERTIFICATE-----
