Certificate:
    Data:
        Version: 3 (0x2)
        Serial Number: 305419898 (0x1234567a)
        Signature Algorithm: sha256WithRSAEncryption
        Issuer: CN=SRK1_sha256_4096_65537_v3_ca
        Validity
            Not Before: Apr 22 13:10:15 2026 GMT
            Not After : Apr 17 13:10:15 2046 GMT
        Subject: CN=IMG1_1_sha256_4096_65537_v3_usr
        Subject Public Key Info:
            Public Key Algorithm: rsaEncryption
                Public-Key: (4096 bit)
                Modulus:
                    00:c1:ca:9c:73:56:db:34:56:b1:d1:c8:b8:63:11:
                    7c:94:8b:7d:8a:1b:f2:98:a6:6f:ae:47:d7:74:49:
                    9f:87:48:a7:c1:48:46:41:37:3d:d6:0f:f0:4d:5d:
                    10:c2:e3:12:3e:7a:b7:7f:74:3a:84:55:e6:19:11:
                    3f:03:53:66:c8:84:ea:09:dc:37:2d:01:2e:aa:63:
                    12:fb:05:32:cb:c8:bb:ac:a5:1b:a6:86:ee:e9:99:
                    cd:b4:7c:b5:7a:2c:93:a9:86:28:ce:36:20:15:07:
                    dd:ce:c3:db:f2:93:6f:71:79:79:71:0e:97:16:e5:
                    b9:78:6e:e7:48:21:dc:ca:4a:e0:b5:7a:35:ed:b5:
                    13:f7:3e:a9:45:24:d8:2b:b6:77:ca:56:b1:e9:76:
                    a5:f2:79:89:a4:ae:5d:30:f6:76:05:f5:92:7d:a5:
                    5c:f8:c4:a4:03:fc:13:62:23:23:73:de:dc:d2:fd:
                    cb:c3:d5:bc:86:73:df:07:3b:4d:41:23:0f:62:29:
                    b3:06:b4:c6:f9:fa:b8:ee:c4:20:10:3d:3d:71:54:
                    83:2c:5e:17:42:bd:6e:f1:f4:0b:d9:2b:b3:94:95:
                    33:95:0e:ab:09:b5:11:89:4b:f3:c1:6f:d6:3a:a6:
                    67:99:76:38:dd:ee:58:d0:d1:ac:69:0f:4f:69:d9:
                    d0:b5:e6:48:3d:f6:9e:9f:ec:2a:64:b7:55:f0:b0:
                    9a:65:ca:c4:03:be:62:e6:5c:1e:ce:f2:b5:6c:85:
                    aa:9b:6c:6f:6f:1a:ae:5f:e3:2c:7c:1f:a8:83:66:
                    fc:31:f8:c0:29:b9:a7:e8:99:77:3b:1c:73:80:1f:
                    5e:c9:5c:d2:0d:70:a0:00:2e:8c:5b:de:77:90:f1:
                    c9:62:b0:32:7e:49:55:19:31:87:86:0e:75:f5:ce:
                    60:36:37:fe:1a:e9:e3:4c:0c:47:2a:e7:06:08:7b:
                    15:e5:eb:4d:f7:03:38:af:8b:31:4b:fc:44:20:d3:
                    c1:d2:e3:d8:d7:16:23:bb:97:f2:b3:0a:bc:81:1b:
                    be:5e:58:38:61:58:80:71:1b:ba:7c:38:6f:e9:e2:
                    68:a3:ea:f5:52:fa:ec:cc:b2:b8:74:be:1e:b9:8a:
                    c1:68:e8:f1:da:e4:67:0d:66:87:20:11:2a:c9:56:
                    85:6e:f1:1b:ec:17:be:c1:24:db:82:32:68:07:4b:
                    da:08:6e:0e:85:cc:a8:57:af:72:da:71:cc:8b:a4:
                    f6:74:4b:2d:b9:44:ed:10:69:c8:af:17:45:d8:e0:
                    77:90:0a:ab:ec:0d:0f:f8:aa:22:8c:e7:d4:b7:2c:
                    02:d5:39:9b:ff:c9:c0:cf:9a:c5:3d:00:28:24:49:
                    ae:d0:cd
                Exponent: 65537 (0x10001)
        X509v3 extensions:
            X509v3 Basic Constraints: 
                CA:FALSE
            Netscape Comment: 
                OpenSSL Generated Certificate
            X509v3 Subject Key Identifier: 
                7A:E4:9E:10:BE:E5:3A:75:91:4E:7C:FA:63:3B:E9:8D:28:C5:43:08
            X509v3 Authority Key Identifier: 
                14:67:7C:C3:98:BE:CD:27:30:1B:20:47:AE:78:B5:40:B1:9E:3B:47
    Signature Algorithm: sha256WithRSAEncryption
    Signature Value:
        16:42:c3:d8:d0:f7:ad:e1:64:2b:77:69:94:5c:6a:fe:0a:cc:
        1d:4e:9a:ae:84:1e:25:d9:10:1f:1c:4a:5c:a9:17:d9:39:a0:
        e3:2b:d9:f0:82:4b:62:7d:9c:e4:58:43:b0:6b:f2:67:80:2f:
        af:6a:ea:33:19:70:60:bd:09:25:44:55:4e:84:35:b8:5b:97:
        97:4d:70:27:92:4c:a7:e1:fc:f9:e3:ac:9b:9e:5f:fc:b5:b2:
        68:55:37:c8:df:88:32:c5:94:d1:2d:ad:ae:04:42:34:52:38:
        e4:53:04:7b:62:b1:07:d2:52:4e:e8:82:14:ce:31:24:59:20:
        b1:2c:77:df:0c:86:e4:ac:30:43:05:3d:6f:0c:98:3f:cf:e5:
        27:da:cb:1d:e0:b6:1a:81:f6:07:04:11:d7:e8:aa:87:d3:f2:
        cd:6c:a6:77:7b:2a:f7:0c:2a:41:9a:14:95:6b:4c:0d:6e:c9:
        eb:fe:3e:0c:3d:95:d8:1a:a2:58:cf:76:4f:a9:ff:be:02:1a:
        c9:af:ac:01:93:7d:ca:f4:4c:6b:b3:4c:79:8c:48:0a:3e:77:
        20:b2:23:2b:ee:58:ac:10:2a:fd:22:19:ea:d9:b0:cf:cd:b0:
        db:e1:58:ec:75:a3:ad:2f:05:f4:8c:4b:c6:d4:f8:60:99:a1:
        1e:6c:8b:0f:50:4e:4f:73:39:60:04:4e:57:11:fd:07:16:6a:
        e2:db:68:32:9c:a6:b1:12:56:61:ed:5b:3c:6c:15:03:b8:df:
        55:31:ad:f7:97:ac:e1:ec:2c:03:2b:fd:08:04:e7:29:5a:d3:
        70:0f:4d:c4:d6:73:6e:ee:76:9c:61:99:d9:f0:7c:6a:14:67:
        01:e3:7f:32:f4:f5:2d:3e:e6:7b:b2:16:48:70:d0:c5:f9:30:
        7a:81:ee:1f:36:dc:b4:be:47:ba:77:6f:7a:ed:51:6a:96:22:
        19:a4:a1:47:c9:4e:1f:c8:72:f2:b9:94:e5:98:f2:2e:28:03:
        9a:b8:2b:2b:0b:46:73:7c:55:f8:f7:0f:64:e8:68:d9:31:f3:
        e7:0e:5f:15:95:71:18:66:78:24:c0:79:20:16:8a:18:db:20:
        cb:31:e0:28:12:03:7a:a2:c7:69:e2:5f:95:e0:a2:92:e5:b7:
        71:66:fd:36:d2:f7:8f:0e:d0:54:46:b5:bc:8b:d5:16:18:aa:
        c8:b8:4b:f0:3e:eb:99:cc:fd:82:67:a5:f4:c2:f0:e7:ec:ea:
        f4:eb:4e:3f:ba:68:cf:fc:af:85:e7:c7:57:7c:58:cb:7b:25:
        2b:6e:cd:68:d1:13:c9:16:12:f7:d1:d2:e4:0e:85:ad:42:0e:
        fa:8b:c1:b0:40:2a:05:48
-----BEGIN CERTIFICATE-----
MIIFSjCCAzKgAwIBAgIEEjRWejANBgkqhkiG9w0BAQsFADAnMSUwIwYDVQQDDBxT
UksxX3NoYTI1Nl80MDk2XzY1NTM3X3YzX2NhMB4XDTI2MDQyMjEzMTAxNVoXDTQ2
MDQxNzEzMTAxNVowKjEoMCYGA1UEAwwfSU1HMV8xX3NoYTI1Nl80MDk2XzY1NTM3
X3YzX3VzcjCCAiIwDQYJKoZIhvcNAQEBBQADggIPADCCAgoCggIBAMHKnHNW2zRW
sdHIuGMRfJSLfYob8pimb65H13RJn4dIp8FIRkE3PdYP8E1dEMLjEj56t390OoRV
5hkRPwNTZsiE6gncNy0BLqpjEvsFMsvIu6ylG6aG7umZzbR8tXosk6mGKM42IBUH
3c7D2/KTb3F5eXEOlxbluXhu50gh3MpK4LV6Ne21E/c+qUUk2Cu2d8pWsel2pfJ5
iaSuXTD2dgX1kn2lXPjEpAP8E2IjI3Pe3NL9y8PVvIZz3wc7TUEjD2Ipswa0xvn6
uO7EIBA9PXFUgyxeF0K9bvH0C9krs5SVM5UOqwm1EYlL88Fv1jqmZ5l2ON3uWNDR
rGkPT2nZ0LXmSD32np/sKmS3VfCwmmXKxAO+YuZcHs7ytWyFqptsb28arl/jLHwf
qINm/DH4wCm5p+iZdzscc4AfXslc0g1woAAujFved5DxyWKwMn5JVRkxh4YOdfXO
YDY3/hrp40wMRyrnBgh7FeXrTfcDOK+LMUv8RCDTwdLj2NcWI7uX8rMKvIEbvl5Y
OGFYgHEbunw4b+niaKPq9VL67MyyuHS+HrmKwWjo8drkZw1mhyARKslWhW7xG+wX
vsEk24IyaAdL2ghuDoXMqFevctpxzIuk9nRLLblE7RBpyK8XRdjgd5AKq+wND/iq
Iozn1LcsAtU5m//JwM+axT0AKCRJrtDNAgMBAAGjezB5MAkGA1UdEwQCMAAwLAYJ
YIZIAYb4QgENBB8WHU9wZW5TU0wgR2VuZXJhdGVkIENlcnRpZmljYXRlMB0GA1Ud
DgQWBBR65J4QvuU6dZFOfPpjO+mNKMVDCDAfBgNVHSMEGDAWgBQUZ3zDmL7NJzAb
IEeueLVAsZ47RzANBgkqhkiG9w0BAQsFAAOCAgEAFkLD2ND3reFkK3dplFxq/grM
HU6aroQeJdkQHxxKXKkX2Tmg4yvZ8IJLYn2c5FhDsGvyZ4Avr2rqMxlwYL0JJURV
ToQ1uFuXl01wJ5JMp+H8+eOsm55f/LWyaFU3yN+IMsWU0S2trgRCNFI45FMEe2Kx
B9JSTuiCFM4xJFkgsSx33wyG5KwwQwU9bwyYP8/lJ9rLHeC2GoH2BwQR1+iqh9Py
zWymd3sq9wwqQZoUlWtMDW7J6/4+DD2V2BqiWM92T6n/vgIaya+sAZN9yvRMa7NM
eYxICj53ILIjK+5YrBAq/SIZ6tmwz82w2+FY7HWjrS8F9IxLxtT4YJmhHmyLD1BO
T3M5YAROVxH9BxZq4ttoMpymsRJWYe1bPGwVA7jfVTGt95es4ewsAyv9CATnKVrT
cA9NxNZzbu52nGGZ2fB8ahRnAeN/MvT1LT7me7IWSHDQxfkweoHuHzbctL5Hundv
eu1RapYiGaShR8lOH8hy8rmU5ZjyLigDmrgrKwtGc3xV+PcPZOho2THz5w5fFZVx
GGZ4JMB5IBaKGNsgyzHgKBIDeqLHaeJfleCikuW3cWb9NtL3jw7QVEa1vIvVFhiq
yLhL8D7rmcz9gmel9MLw5+zq9OtOP7poz/yvhefHV3xYy3slK27NaNETyRYS99HS
5A6FrUIO+ovBsEAqBUg=
-----END CERTIFICATE-----
