Certificate:
    Data:
        Version: 3 (0x2)
        Serial Number: 305419901 (0x1234567d)
        Signature Algorithm: sha256WithRSAEncryption
        Issuer: CN=SRK2_sha256_4096_65537_v3_ca
        Validity
            Not Before: Apr 22 13:10:16 2026 GMT
            Not After : Apr 17 13:10:16 2046 GMT
        Subject: CN=IMG2_1_sha256_4096_65537_v3_usr
        Subject Public Key Info:
            Public Key Algorithm: rsaEncryption
                Public-Key: (4096 bit)
                Modulus:
                    00:cc:da:a2:25:3b:3d:93:41:00:50:77:2b:20:8d:
                    fa:d9:1e:3e:a6:7a:d6:4b:d4:01:97:51:2f:f2:d0:
                    6e:46:f8:87:e0:5a:e8:65:dc:ac:cc:f1:45:2b:9c:
                    ef:71:55:ab:6d:db:d5:7d:90:1c:30:03:53:ee:f9:
                    a4:a9:18:74:48:98:dc:4c:f7:c1:e3:40:6f:77:11:
                    71:b4:18:14:59:eb:27:0c:1f:9d:a9:41:bc:48:dc:
                    73:41:29:52:b3:66:ae:61:12:bb:d5:b2:87:b7:e9:
                    34:59:5a:26:ca:72:21:61:15:ca:46:43:2c:84:9f:
                    eb:75:f0:b4:ed:24:8f:b7:0d:b2:75:ac:87:95:0e:
                    38:db:75:ba:dc:b6:76:5b:47:5e:04:d9:54:6d:1b:
                    ec:c3:82:54:3f:f4:9c:4a:b7:5d:9f:bb:6c:f4:12:
                    41:a5:6e:c5:2f:18:f3:61:3a:f5:85:80:f6:f6:0c:
                    52:00:08:33:3e:e9:d1:e9:4d:f0:23:20:4a:51:15:
                    84:2b:f3:1c:ee:72:47:bb:94:ae:c2:be:84:a0:13:
                    71:02:f3:e8:65:f4:df:04:f0:70:97:f2:ce:2c:cc:
                    f0:36:a9:6c:0e:3f:d5:26:83:b7:d4:fd:f9:06:bf:
                    7b:b1:6b:bf:b0:72:d3:47:93:bb:ea:79:5b:aa:b4:
                    06:f9:f3:fb:48:a3:cb:85:84:62:5f:58:0c:79:2a:
                    30:f4:01:60:56:a0:62:6b:70:ec:bd:e7:21:dc:5a:
                    cb:a3:d3:98:52:5f:7b:7a:f4:90:17:ec:ff:05:8d:
                    d3:21:95:68:cf:6e:6e:59:39:bc:d8:ed:8b:32:f4:
                    39:0c:f4:f1:91:76:5d:23:d4:3c:30:c4:3b:10:4a:
                    9f:0c:10:6d:35:f9:14:06:0a:bd:54:4d:ef:ce:f1:
                    13:9e:30:6b:66:e3:fb:c9:91:cf:24:f1:09:09:f7:
                    39:a2:d2:1b:96:d0:48:e9:4c:3a:0f:2e:78:af:01:
                    b0:82:a1:94:7c:51:f6:e5:b2:47:7d:f3:f6:b2:5b:
                    69:84:ff:69:ef:65:ff:fa:60:d4:18:64:42:ce:cd:
                    77:28:12:9d:92:76:12:af:f1:ba:83:eb:b6:3f:8d:
                    83:2b:27:2c:13:0a:54:a8:e2:dd:b7:75:29:57:c4:
                    30:3a:e4:7f:a4:ed:09:ee:ba:e2:a6:b5:d9:92:31:
                    70:06:16:01:06:12:2c:d1:b3:9f:22:b4:a1:29:f6:
                    a2:76:77:7f:fa:5e:ed:05:1b:b3:96:07:83:d8:64:
                    0a:48:65:2a:6e:ac:ae:40:8e:67:6c:1e:c3:74:d5:
                    f2:0d:7a:a9:90:c2:5f:cb:ca:77:6f:d1:8e:85:be:
                    fd:de:75
                Exponent: 65537 (0x10001)
        X509v3 extensions:
            X509v3 Basic Constraints: 
                CA:FALSE
            Netscape Comment: 
                OpenSSL Generated Certificate
            X509v3 Subject Key Identifier: 
                9B:AA:2F:7C:4F:A9:D3:C9:75:EE:C9:C5:A6:0B:28:09:0B:2E:17:56
            X509v3 Authority Key Identifier: 
                BE:18:94:14:B6:25:0D:92:A9:1A:DF:5C:73:A2:10:F0:18:EC:10:7C
    Signature Algorithm: sha256WithRSAEncryption
    Signature Value:
        0e:1c:e4:65:7d:03:eb:42:71:a3:68:ad:f8:01:e1:3c:fb:d1:
        84:20:25:35:3f:53:8c:9e:47:7d:a2:96:92:ac:12:b8:84:07:
        05:91:38:34:4a:ea:cd:d0:d5:34:46:52:95:63:e3:b3:14:4f:
        18:d2:73:f9:80:69:45:b0:2a:0c:e1:31:0e:35:9e:8c:5b:41:
        b3:3c:f4:c5:dc:a5:b1:af:cc:86:cb:75:1a:8a:d8:ec:cf:af:
        22:46:e8:c6:56:7f:4f:f5:73:b2:a8:8e:29:85:52:15:50:3e:
        51:3d:a5:63:84:84:f6:fa:98:76:cb:e8:04:41:c5:ef:46:20:
        10:b1:2d:aa:b3:e1:c3:a6:dd:5f:b4:94:1e:d3:b9:7f:c7:5e:
        0d:52:79:14:cb:9a:db:4f:a0:e0:13:9d:54:76:db:be:99:e7:
        53:20:f5:43:3c:a6:88:a6:c8:fb:06:49:11:ac:5d:c6:2f:ca:
        e3:ba:b5:9f:be:9f:87:87:9d:29:6d:da:2b:9b:eb:fb:d6:cf:
        f6:f0:7d:c1:81:56:c8:85:f6:fe:ca:cf:9a:76:aa:3c:73:9b:
        3d:17:c2:33:c5:a5:58:dd:03:15:a0:9d:ce:4b:77:0d:a7:59:
        9d:f4:c1:ce:3e:d9:76:70:09:56:8f:9f:22:e1:79:bf:76:50:
        39:09:c6:63:6a:f3:d2:11:e3:7f:4e:7b:2d:ab:90:08:db:9f:
        68:9a:73:63:02:42:6a:72:6b:a9:88:31:16:54:3c:18:37:54:
        c9:93:b3:69:a9:9b:f2:b4:f4:14:7d:bd:66:22:06:7d:af:53:
        cf:2f:c5:09:b3:5e:c3:48:c3:97:4e:30:a9:66:c5:dd:46:76:
        18:8c:2f:4f:33:56:92:d7:87:85:18:27:78:69:39:23:63:9b:
        d3:77:b2:2b:8e:c4:3b:c5:e8:b8:70:fd:c0:fc:3e:a5:f8:3f:
        4b:4d:66:1c:fd:90:11:63:09:6a:29:04:bd:15:77:15:23:70:
        85:a3:e6:47:86:9d:15:65:d1:87:64:fc:bb:33:71:4a:b5:7f:
        df:3a:76:e5:99:44:5f:d2:e6:46:80:4e:79:0f:f1:d2:d8:f3:
        5f:30:37:1e:48:c9:85:c3:0d:4b:81:2d:81:76:3e:ed:45:24:
        03:8c:11:fa:41:a5:a6:1f:d0:26:2d:42:cb:76:61:b3:9a:e1:
        18:fe:34:32:ee:7b:bf:eb:d4:21:e4:47:8c:44:06:a2:0e:cc:
        e2:72:4f:57:5d:e5:6f:43:87:2e:86:5a:71:45:e3:6b:2a:64:
        1c:9f:4e:65:39:ae:80:c4:59:1c:43:14:bb:aa:e8:13:e9:03:
        63:85:9c:80:d7:f1:a7:68
-----BEGIN CERTIFICATE-----
MIIFSjCCAzKgAwIBAgIEEjRWfTANBgkqhkiG9w0BAQsFADAnMSUwIwYDVQQDDBxT
UksyX3NoYTI1Nl80MDk2XzY1NTM3X3YzX2NhMB4XDTI2MDQyMjEzMTAxNloXDTQ2
MDQxNzEzMTAxNlowKjEoMCYGA1UEAwwfSU1HMl8xX3NoYTI1Nl80MDk2XzY1NTM3
X3YzX3VzcjCCAiIwDQYJKoZIhvcNAQEBBQADggIPADCCAgoCggIBAMzaoiU7PZNB
AFB3KyCN+tkePqZ61kvUAZdRL/LQbkb4h+Ba6GXcrMzxRSuc73FVq23b1X2QHDAD
U+75pKkYdEiY3Ez3weNAb3cRcbQYFFnrJwwfnalBvEjcc0EpUrNmrmESu9Wyh7fp
NFlaJspyIWEVykZDLISf63XwtO0kj7cNsnWsh5UOONt1uty2dltHXgTZVG0b7MOC
VD/0nEq3XZ+7bPQSQaVuxS8Y82E69YWA9vYMUgAIMz7p0elN8CMgSlEVhCvzHO5y
R7uUrsK+hKATcQLz6GX03wTwcJfyzizM8DapbA4/1SaDt9T9+Qa/e7Frv7By00eT
u+p5W6q0Bvnz+0ijy4WEYl9YDHkqMPQBYFagYmtw7L3nIdxay6PTmFJfe3r0kBfs
/wWN0yGVaM9ublk5vNjtizL0OQz08ZF2XSPUPDDEOxBKnwwQbTX5FAYKvVRN787x
E54wa2bj+8mRzyTxCQn3OaLSG5bQSOlMOg8ueK8BsIKhlHxR9uWyR33z9rJbaYT/
ae9l//pg1BhkQs7NdygSnZJ2Eq/xuoPrtj+NgysnLBMKVKji3bd1KVfEMDrkf6Tt
Ce664qa12ZIxcAYWAQYSLNGznyK0oSn2onZ3f/pe7QUbs5YHg9hkCkhlKm6srkCO
Z2wew3TV8g16qZDCX8vKd2/RjoW+/d51AgMBAAGjezB5MAkGA1UdEwQCMAAwLAYJ
YIZIAYb4QgENBB8WHU9wZW5TU0wgR2VuZXJhdGVkIENlcnRpZmljYXRlMB0GA1Ud
DgQWBBSbqi98T6nTyXXuycWmCygJCy4XVjAfBgNVHSMEGDAWgBS+GJQUtiUNkqka
31xzohDwGOwQfDANBgkqhkiG9w0BAQsFAAOCAgEADhzkZX0D60Jxo2it+AHhPPvR
hCAlNT9TjJ5HfaKWkqwSuIQHBZE4NErqzdDVNEZSlWPjsxRPGNJz+YBpRbAqDOEx
DjWejFtBszz0xdylsa/Mhst1GorY7M+vIkboxlZ/T/VzsqiOKYVSFVA+UT2lY4SE
9vqYdsvoBEHF70YgELEtqrPhw6bdX7SUHtO5f8deDVJ5FMua20+g4BOdVHbbvpnn
UyD1QzymiKbI+wZJEaxdxi/K47q1n76fh4edKW3aK5vr+9bP9vB9wYFWyIX2/srP
mnaqPHObPRfCM8WlWN0DFaCdzkt3DadZnfTBzj7ZdnAJVo+fIuF5v3ZQOQnGY2rz
0hHjf057LauQCNufaJpzYwJCanJrqYgxFlQ8GDdUyZOzaamb8rT0FH29ZiIGfa9T
zy/FCbNew0jDl04wqWbF3UZ2GIwvTzNWkteHhRgneGk5I2Ob03eyK47EO8XouHD9
wPw+pfg/S01mHP2QEWMJaikEvRV3FSNwhaPmR4adFWXRh2T8uzNxSrV/3zp25ZlE
X9LmRoBOeQ/x0tjzXzA3HkjJhcMNS4EtgXY+7UUkA4wR+kGlph/QJi1Cy3Zhs5rh
GP40Mu57v+vUIeRHjEQGog7M4nJPV13lb0OHLoZacUXjaypkHJ9OZTmugMRZHEMU
u6roE+kDY4WcgNfxp2g=
-----END CERTIFICATE-----
