Certificate:
    Data:
        Version: 3 (0x2)
        Serial Number: 305419899 (0x1234567b)
        Signature Algorithm: sha256WithRSAEncryption
        Issuer: CN=CA1_sha256_4096_65537_v3_ca
        Validity
            Not Before: Apr 22 13:10:16 2026 GMT
            Not After : Apr 17 13:10:16 2046 GMT
        Subject: CN=SRK2_sha256_4096_65537_v3_ca
        Subject Public Key Info:
            Public Key Algorithm: rsaEncryption
                Public-Key: (4096 bit)
                Modulus:
                    00:b5:84:b7:12:6f:48:75:ba:fe:df:96:e6:f2:6b:
                    9f:d6:e9:86:f2:5c:4b:e0:5d:1f:42:3f:93:65:04:
                    b0:71:f6:a4:15:d5:9c:29:ec:db:bd:4a:58:55:0e:
                    94:cf:e7:41:05:c6:6a:d8:6f:05:b5:73:07:98:92:
                    61:9d:95:b8:c0:9d:06:2c:f0:4b:ec:bb:a2:f2:02:
                    20:1f:ed:0b:93:f2:cb:59:10:9b:2d:38:8a:45:58:
                    f6:1a:d1:de:43:46:8b:01:17:b3:e1:3e:79:c1:22:
                    47:6b:11:8b:bf:90:f3:66:eb:0a:94:7c:b7:d5:76:
                    d2:87:c2:39:73:2a:ba:f9:6f:d8:66:fa:f5:a9:09:
                    18:e5:24:91:f3:3f:34:b5:f6:d6:5b:92:a6:72:36:
                    a7:8d:71:b4:46:16:93:04:f9:1a:e0:59:fc:30:f2:
                    cc:7c:12:2a:a3:34:2e:1d:61:55:08:27:11:fb:91:
                    1d:43:f0:2d:cf:27:f2:3e:48:80:0c:fd:db:a2:ad:
                    81:87:66:a5:ca:3f:e3:41:42:a7:05:0f:e8:d9:74:
                    a4:20:99:e1:42:15:64:92:47:cf:7a:d0:63:b9:6a:
                    73:14:f9:2b:30:55:ff:0b:15:0b:e3:4b:32:25:f6:
                    1b:8b:36:42:28:b6:c6:e7:02:06:cc:ca:3f:53:cc:
                    7b:8f:96:71:51:fb:92:42:dd:0f:95:14:e9:50:8d:
                    13:da:ec:d6:e0:24:d0:60:04:f5:e1:55:ad:9b:57:
                    69:15:58:ba:ae:02:ea:b9:f8:57:39:88:a7:14:78:
                    fd:6e:2b:d5:98:03:e0:27:bb:98:26:20:47:a5:4a:
                    51:63:8c:bb:fb:49:81:95:ac:77:db:1e:4a:c7:19:
                    52:51:35:74:6d:fe:7b:b7:03:6b:cf:6f:bb:4e:e3:
                    b2:29:74:27:a6:57:b5:e2:63:fa:43:b8:4c:6b:ca:
                    53:b0:ae:cc:6d:14:0a:eb:36:06:85:4c:13:7c:fd:
                    7d:c4:68:e0:03:68:91:d9:56:4d:9f:b1:2b:f0:d5:
                    65:50:a4:50:aa:2e:88:db:c2:b6:e6:1f:cb:4b:82:
                    be:1b:a0:f7:ef:73:a9:df:2d:23:dc:95:ca:05:7b:
                    a7:02:dc:31:6f:24:eb:1d:eb:8a:0e:80:cc:08:87:
                    07:fa:63:a9:58:4f:a7:93:3d:c4:b0:60:ec:98:54:
                    a9:65:93:83:6f:9b:1b:87:ea:06:6e:56:33:69:95:
                    ab:14:59:5c:3f:c3:72:b7:70:d6:35:e9:81:7f:c1:
                    34:62:82:e6:d7:b9:b6:51:96:8d:43:40:c2:84:2e:
                    c9:28:77:8f:5e:2d:f3:d8:44:37:22:95:9a:b6:91:
                    1b:18:b7
                Exponent: 65537 (0x10001)
        X509v3 extensions:
            X509v3 Subject Key Identifier: 
                BE:18:94:14:B6:25:0D:92:A9:1A:DF:5C:73:A2:10:F0:18:EC:10:7C
            X509v3 Authority Key Identifier: 
                keyid:62:F2:80:D3:EF:CA:E0:E5:41:19:56:34:F1:30:6F:B7:D6:FD:94:AA
                DirName:/CN=CA1_sha256_4096_65537_v3_ca
                serial:50:7F:02:AD:54:29:1A:B8:14:9B:E8:70:7D:7D:66:0C:CD:47:F5:D8
            X509v3 Basic Constraints: critical
                CA:TRUE
            X509v3 Key Usage: 
                Certificate Sign
    Signature Algorithm: sha256WithRSAEncryption
    Signature Value:
        14:b5:e9:2d:68:c2:68:f5:b1:91:2e:6c:14:85:83:49:02:6b:
        1c:c2:ec:7b:b7:ca:0b:63:5b:c9:aa:d5:97:09:a8:6e:ea:5e:
        dc:a5:7b:b8:f4:b4:7c:61:63:89:81:9f:1a:d4:94:84:6a:ea:
        98:16:f3:9d:d3:f4:3d:dc:a4:80:61:c8:4a:4b:a6:ad:40:3f:
        d0:e9:a0:84:5b:2d:2e:04:60:4e:a1:06:7e:52:4a:f3:a3:8b:
        e1:5e:25:57:98:f2:1f:85:ac:af:41:6b:13:60:64:0a:84:ae:
        2e:8b:bb:ef:6e:17:14:3c:1e:4e:63:a6:56:b1:6b:eb:ee:3d:
        ce:44:71:fa:99:fe:03:ee:dd:2b:f6:1b:d8:06:0a:d3:7a:d7:
        f4:af:f5:71:cf:61:40:f3:90:ca:14:70:84:11:1c:d0:ba:01:
        ac:6f:4b:de:f6:0f:89:31:78:7d:c9:e5:8c:43:86:e7:f7:84:
        00:da:12:93:ab:ff:ce:56:80:ae:59:88:ba:68:6d:4f:da:73:
        89:45:c7:56:ca:e4:a1:f9:51:57:f6:85:98:f8:2b:96:4a:f5:
        b2:4b:c7:3a:da:38:f9:53:a7:f9:36:ee:21:1c:fd:86:23:ab:
        24:ef:ed:9d:0d:60:46:af:b2:2e:6c:2a:8b:81:2b:3d:e1:17:
        bf:dc:44:1d:6f:ae:bc:1c:66:e3:2c:d8:4e:0d:66:d7:07:8c:
        7f:c0:28:db:2d:5e:cb:c6:f8:41:87:3d:99:95:36:99:06:90:
        88:c0:9e:a4:32:61:a9:e9:36:59:24:86:4c:4f:1b:85:8c:40:
        8d:5f:ef:6f:ee:c4:58:77:76:34:cd:6e:ec:f9:f4:9b:09:75:
        04:33:27:53:f2:bc:ca:f9:c0:fd:9e:dc:ae:05:3a:49:f5:0b:
        1d:03:c0:c3:4b:d7:a1:6c:70:18:01:0d:73:37:4a:db:37:a3:
        48:be:31:c9:21:5c:97:3e:5a:b6:b9:91:aa:6e:de:46:96:f0:
        d2:c3:21:39:77:78:b2:73:12:f4:35:ad:ca:18:79:6b:e6:f7:
        dd:86:51:6a:e1:71:41:cd:6e:b6:f8:a9:99:23:6e:43:13:7e:
        b8:ee:ae:ab:4d:a4:00:f3:f9:c7:b5:cd:4e:4f:fe:18:f0:a7:
        ea:e3:41:a5:ea:b8:9e:7a:1a:28:2e:65:ac:9d:8c:4b:87:42:
        5a:ee:32:98:bf:6d:ed:cc:38:85:95:24:c0:1c:17:c6:94:09:
        6c:f0:04:28:7e:8c:b9:b0:9d:c5:2a:ab:98:68:99:77:30:29:
        f3:1d:ce:be:47:4c:bf:95:53:8d:8b:66:e8:15:12:33:8b:87:
        bf:ed:49:64:b0:5a:f2:e6
-----BEGIN CERTIFICATE-----
MIIFbzCCA1egAwIBAgIEEjRWezANBgkqhkiG9w0BAQsFADAmMSQwIgYDVQQDFBtD
QTFfc2hhMjU2XzQwOTZfNjU1MzdfdjNfY2EwHhcNMjYwNDIyMTMxMDE2WhcNNDYw
NDE3MTMxMDE2WjAnMSUwIwYDVQQDDBxTUksyX3NoYTI1Nl80MDk2XzY1NTM3X3Yz
X2NhMIICIjANBgkqhkiG9w0BAQEFAAOCAg8AMIICCgKCAgEAtYS3Em9Idbr+35bm
8muf1umG8lxL4F0fQj+TZQSwcfakFdWcKezbvUpYVQ6Uz+dBBcZq2G8FtXMHmJJh
nZW4wJ0GLPBL7Lui8gIgH+0Lk/LLWRCbLTiKRVj2GtHeQ0aLARez4T55wSJHaxGL
v5DzZusKlHy31XbSh8I5cyq6+W/YZvr1qQkY5SSR8z80tfbWW5KmcjanjXG0RhaT
BPka4Fn8MPLMfBIqozQuHWFVCCcR+5EdQ/AtzyfyPkiADP3boq2Bh2alyj/jQUKn
BQ/o2XSkIJnhQhVkkkfPetBjuWpzFPkrMFX/CxUL40syJfYbizZCKLbG5wIGzMo/
U8x7j5ZxUfuSQt0PlRTpUI0T2uzW4CTQYAT14VWtm1dpFVi6rgLqufhXOYinFHj9
bivVmAPgJ7uYJiBHpUpRY4y7+0mBlax32x5KxxlSUTV0bf57twNrz2+7TuOyKXQn
ple14mP6Q7hMa8pTsK7MbRQK6zYGhUwTfP19xGjgA2iR2VZNn7Er8NVlUKRQqi6I
28K25h/LS4K+G6D373Op3y0j3JXKBXunAtwxbyTrHeuKDoDMCIcH+mOpWE+nkz3E
sGDsmFSpZZODb5sbh+oGblYzaZWrFFlcP8Nyt3DWNemBf8E0YoLm17m2UZaNQ0DC
hC7JKHePXi3z2EQ3IpWatpEbGLcCAwEAAaOBozCBoDAdBgNVHQ4EFgQUvhiUFLYl
DZKpGt9cc6IQ8BjsEHwwYQYDVR0jBFowWIAUYvKA0+/K4OVBGVY08TBvt9b9lKqh
KqQoMCYxJDAiBgNVBAMUG0NBMV9zaGEyNTZfNDA5Nl82NTUzN192M19jYYIUUH8C
rVQpGrgUm+hwfX1mDM1H9dgwDwYDVR0TAQH/BAUwAwEB/zALBgNVHQ8EBAMCAgQw
DQYJKoZIhvcNAQELBQADggIBABS16S1owmj1sZEubBSFg0kCaxzC7Hu3ygtjW8mq
1ZcJqG7qXtyle7j0tHxhY4mBnxrUlIRq6pgW853T9D3cpIBhyEpLpq1AP9DpoIRb
LS4EYE6hBn5SSvOji+FeJVeY8h+FrK9BaxNgZAqEri6Lu+9uFxQ8Hk5jplaxa+vu
Pc5EcfqZ/gPu3Sv2G9gGCtN61/Sv9XHPYUDzkMoUcIQRHNC6AaxvS972D4kxeH3J
5YxDhuf3hADaEpOr/85WgK5ZiLpobU/ac4lFx1bK5KH5UVf2hZj4K5ZK9bJLxzra
OPlTp/k27iEc/YYjqyTv7Z0NYEavsi5sKouBKz3hF7/cRB1vrrwcZuMs2E4NZtcH
jH/AKNstXsvG+EGHPZmVNpkGkIjAnqQyYanpNlkkhkxPG4WMQI1f72/uxFh3djTN
buz59JsJdQQzJ1PyvMr5wP2e3K4FOkn1Cx0DwMNL16FscBgBDXM3Sts3o0i+Mckh
XJc+Wra5kapu3kaW8NLDITl3eLJzEvQ1rcoYeWvm992GUWrhcUHNbrb4qZkjbkMT
frjurqtNpADz+ce1zU5P/hjwp+rjQaXquJ56GiguZaydjEuHQlruMpi/be3MOIWV
JMAcF8aUCWzwBCh+jLmwncUqq5homXcwKfMdzr5HTL+VU42LZugVEjOLh7/tSWSw
WvLm
-----END CERTIFICATE-----
