Certificate:
    Data:
        Version: 3 (0x2)
        Serial Number: 305419905 (0x12345681)
        Signature Algorithm: sha256WithRSAEncryption
        Issuer: CN=CA1_sha256_4096_65537_v3_ca
        Validity
            Not Before: Apr 22 13:10:17 2026 GMT
            Not After : Apr 17 13:10:17 2046 GMT
        Subject: CN=SRK4_sha256_4096_65537_v3_ca
        Subject Public Key Info:
            Public Key Algorithm: rsaEncryption
                Public-Key: (4096 bit)
                Modulus:
                    00:d5:24:09:fe:0c:1f:35:52:b9:26:e3:e9:b8:22:
                    45:9f:9c:74:80:74:88:84:19:29:3e:f5:9f:87:30:
                    b3:ea:f3:5c:26:43:ec:56:03:b8:1e:1f:37:b0:58:
                    15:c6:3e:09:ae:0b:0f:66:fd:91:f4:28:53:28:d5:
                    4b:64:59:a7:87:22:aa:5b:04:e6:0b:4a:4e:11:da:
                    6a:12:78:bf:97:9a:2f:40:b3:38:23:3f:59:3f:d7:
                    4b:cc:3b:61:f8:cf:9f:da:1a:f5:38:68:9a:c5:a8:
                    0f:88:d1:9e:72:58:67:13:56:a9:80:0c:5f:b4:a6:
                    75:60:e3:10:ee:57:65:a4:ff:6b:a6:96:df:e3:04:
                    d6:2b:7d:19:3e:ac:74:f9:fa:a9:e9:58:d8:17:18:
                    82:96:c9:9e:5e:b4:c5:24:30:1b:62:c3:99:1d:43:
                    a4:af:d9:bc:bb:c6:83:b4:d1:e9:83:a3:14:d0:86:
                    fe:54:58:3c:c3:41:a6:31:8c:d4:30:51:4d:a8:0e:
                    c1:d6:90:ac:fb:e4:f1:1a:e1:74:da:48:1e:04:29:
                    e9:22:e2:57:f9:6e:83:5e:aa:bf:63:8d:c9:fa:a1:
                    ca:77:20:3b:7c:d1:c5:eb:e4:67:2a:c2:bc:09:9c:
                    68:d1:97:03:06:42:d8:e2:78:a1:df:d5:63:6a:a5:
                    a8:35:1f:09:05:30:34:1a:93:af:bd:b5:30:5f:c2:
                    b8:d4:03:a7:b2:11:01:26:0f:7f:4e:89:07:e2:de:
                    ad:7c:7b:e0:b0:3d:9b:f2:a5:61:98:30:f5:77:30:
                    b6:39:10:79:30:fe:80:33:b0:3c:e2:94:a3:55:1d:
                    c7:29:32:0b:9d:cb:39:f8:00:63:d3:84:ae:d7:58:
                    9a:2f:e9:98:83:1b:a7:58:f4:8a:23:40:48:b2:75:
                    a4:58:1a:fa:3a:a7:c7:91:4f:1f:3e:9e:9d:72:8c:
                    18:37:21:84:cc:8e:3c:d8:76:3c:0c:bc:0a:c6:2b:
                    77:8d:99:86:9a:18:fb:e0:f9:05:75:2d:10:54:16:
                    48:69:e2:74:f1:91:3d:3a:3c:68:72:4d:55:87:cd:
                    4f:64:a1:7d:35:0c:dd:78:b7:4c:ca:da:17:f1:77:
                    ab:01:a5:ac:63:7c:8a:17:9a:37:ac:d2:c9:b5:d3:
                    8f:18:c6:72:67:ac:3f:1c:39:d5:7e:e7:0d:8a:72:
                    38:a7:96:b7:05:8a:a2:92:7c:19:70:a4:36:e9:8a:
                    cd:4b:47:a9:d4:73:d5:36:36:8d:1c:39:b9:b0:42:
                    50:bb:8f:fc:15:cd:78:cd:f3:4f:b3:a0:1b:a6:a5:
                    cd:8c:2e:f8:ca:c3:f7:e8:d3:0e:36:03:99:b1:6a:
                    5d:35:bd
                Exponent: 65537 (0x10001)
        X509v3 extensions:
            X509v3 Subject Key Identifier: 
                BE:91:64:AC:B0:B4:52:68:E2:84:9B:27:DD:64:B6:A4:1E:FC:EE:19
            X509v3 Authority Key Identifier: 
                keyid:62:F2:80:D3:EF:CA:E0:E5:41:19:56:34:F1:30:6F:B7:D6:FD:94:AA
                DirName:/CN=CA1_sha256_4096_65537_v3_ca
                serial:50:7F:02:AD:54:29:1A:B8:14:9B:E8:70:7D:7D:66:0C:CD:47:F5:D8
            X509v3 Basic Constraints: critical
                CA:TRUE
            X509v3 Key Usage: 
                Certificate Sign
    Signature Algorithm: sha256WithRSAEncryption
    Signature Value:
        2a:05:74:9a:3e:c9:0b:dc:3c:c0:8e:f7:2e:e6:bf:ba:2b:b3:
        17:ac:75:64:68:bb:b7:3b:96:cb:ed:4c:6a:4c:35:78:42:cd:
        04:eb:4b:0b:f2:ea:e4:d8:50:ef:7c:83:12:e4:1a:e7:c1:2e:
        62:c5:32:53:49:6c:44:88:8c:c5:3e:7c:5e:89:12:d8:00:a9:
        a7:6f:7d:c6:59:b6:1c:1f:da:9a:14:f6:39:9f:db:17:ef:22:
        90:ca:c8:54:53:21:ea:c6:04:5f:f7:93:3d:12:5e:5f:95:f6:
        9c:b9:09:70:35:01:f9:3d:41:3a:bc:28:ce:14:28:32:a0:52:
        fc:12:ec:e5:2b:be:d8:a5:86:71:86:1b:87:b1:b2:84:cc:48:
        1b:17:6c:d9:f4:cc:13:2a:30:0e:32:46:cf:0d:0e:65:09:0b:
        43:38:0f:b0:f2:f7:7e:eb:76:3d:73:09:21:e7:2e:aa:00:c4:
        f8:1d:72:64:0e:bc:af:66:f5:55:90:6b:8e:26:86:16:9f:e3:
        8b:bb:49:f2:b0:6f:25:88:dd:d8:88:62:6c:0f:a6:7a:a6:f7:
        3e:bd:6c:fb:60:43:1a:6c:22:3d:98:0b:c6:ef:a1:e8:39:6b:
        54:42:25:10:69:cf:1a:3e:5b:7a:53:6c:87:90:44:8b:78:43:
        23:db:de:15:7f:d5:92:84:f0:40:4d:fd:4e:1a:a6:52:a0:92:
        1c:b9:2f:f4:03:a8:2c:67:cc:0d:c8:df:a4:cb:0c:02:a4:1f:
        9c:04:5b:d1:88:9b:2a:68:05:94:f1:2f:21:51:bf:5d:12:1d:
        9c:14:8e:30:ec:ba:6e:5e:23:c9:06:f9:58:e6:78:e3:53:f4:
        60:8e:e0:b3:aa:0a:18:d6:09:5d:eb:08:ec:06:c6:bf:a1:b9:
        d9:3c:57:0f:f6:fa:ec:fa:43:76:67:83:fb:9c:2d:dd:ec:9a:
        a1:d2:a0:e9:61:4c:75:3b:ea:89:13:f8:aa:ef:ff:e0:e1:85:
        55:32:b2:78:e3:5b:a0:ff:e9:b8:24:3c:f0:35:93:53:63:07:
        bf:bc:c5:d5:96:73:60:c6:0f:6f:f5:a5:b5:44:eb:ae:fb:f6:
        2a:f6:50:60:96:44:e4:b4:2f:7f:bf:eb:68:a1:1c:c1:e5:3d:
        c0:5d:55:e0:5d:72:0c:d7:04:9f:1d:bd:4a:b7:de:cd:48:6f:
        ab:1e:ef:64:8e:e3:38:1a:72:14:fa:ea:d2:ee:a0:1c:f6:21:
        46:0e:71:1c:df:bb:81:a8:6e:22:ef:1c:10:4c:20:2c:a4:37:
        59:98:d6:1b:ca:38:9c:b3:cb:aa:20:fb:e2:be:81:38:75:6a:
        d8:f3:14:1b:bc:33:48:01
-----BEGIN CERTIFICATE-----
MIIFbzCCA1egAwIBAgIEEjRWgTANBgkqhkiG9w0BAQsFADAmMSQwIgYDVQQDFBtD
QTFfc2hhMjU2XzQwOTZfNjU1MzdfdjNfY2EwHhcNMjYwNDIyMTMxMDE3WhcNNDYw
NDE3MTMxMDE3WjAnMSUwIwYDVQQDDBxTUks0X3NoYTI1Nl80MDk2XzY1NTM3X3Yz
X2NhMIICIjANBgkqhkiG9w0BAQEFAAOCAg8AMIICCgKCAgEA1SQJ/gwfNVK5JuPp
uCJFn5x0gHSIhBkpPvWfhzCz6vNcJkPsVgO4Hh83sFgVxj4JrgsPZv2R9ChTKNVL
ZFmnhyKqWwTmC0pOEdpqEni/l5ovQLM4Iz9ZP9dLzDth+M+f2hr1OGiaxagPiNGe
clhnE1apgAxftKZ1YOMQ7ldlpP9rppbf4wTWK30ZPqx0+fqp6VjYFxiClsmeXrTF
JDAbYsOZHUOkr9m8u8aDtNHpg6MU0Ib+VFg8w0GmMYzUMFFNqA7B1pCs++TxGuF0
2kgeBCnpIuJX+W6DXqq/Y43J+qHKdyA7fNHF6+RnKsK8CZxo0ZcDBkLY4nih39Vj
aqWoNR8JBTA0GpOvvbUwX8K41AOnshEBJg9/TokH4t6tfHvgsD2b8qVhmDD1dzC2
ORB5MP6AM7A84pSjVR3HKTILncs5+ABj04Su11iaL+mYgxunWPSKI0BIsnWkWBr6
OqfHkU8fPp6dcowYNyGEzI482HY8DLwKxit3jZmGmhj74PkFdS0QVBZIaeJ08ZE9
Ojxock1Vh81PZKF9NQzdeLdMytoX8XerAaWsY3yKF5o3rNLJtdOPGMZyZ6w/HDnV
fucNinI4p5a3BYqiknwZcKQ26YrNS0ep1HPVNjaNHDm5sEJQu4/8Fc14zfNPs6Ab
pqXNjC74ysP36NMONgOZsWpdNb0CAwEAAaOBozCBoDAdBgNVHQ4EFgQUvpFkrLC0
UmjihJsn3WS2pB787hkwYQYDVR0jBFowWIAUYvKA0+/K4OVBGVY08TBvt9b9lKqh
KqQoMCYxJDAiBgNVBAMUG0NBMV9zaGEyNTZfNDA5Nl82NTUzN192M19jYYIUUH8C
rVQpGrgUm+hwfX1mDM1H9dgwDwYDVR0TAQH/BAUwAwEB/zALBgNVHQ8EBAMCAgQw
DQYJKoZIhvcNAQELBQADggIBACoFdJo+yQvcPMCO9y7mv7orsxesdWRou7c7lsvt
TGpMNXhCzQTrSwvy6uTYUO98gxLkGufBLmLFMlNJbESIjMU+fF6JEtgAqadvfcZZ
thwf2poU9jmf2xfvIpDKyFRTIerGBF/3kz0SXl+V9py5CXA1Afk9QTq8KM4UKDKg
UvwS7OUrvtilhnGGG4exsoTMSBsXbNn0zBMqMA4yRs8NDmUJC0M4D7Dy937rdj1z
CSHnLqoAxPgdcmQOvK9m9VWQa44mhhaf44u7SfKwbyWI3diIYmwPpnqm9z69bPtg
QxpsIj2YC8bvoeg5a1RCJRBpzxo+W3pTbIeQRIt4QyPb3hV/1ZKE8EBN/U4aplKg
khy5L/QDqCxnzA3I36TLDAKkH5wEW9GImypoBZTxLyFRv10SHZwUjjDsum5eI8kG
+VjmeONT9GCO4LOqChjWCV3rCOwGxr+hudk8Vw/2+uz6Q3Zng/ucLd3smqHSoOlh
THU76okT+Krv/+DhhVUysnjjW6D/6bgkPPA1k1NjB7+8xdWWc2DGD2/1pbVE6677
9ir2UGCWROS0L3+/62ihHMHlPcBdVeBdcgzXBJ8dvUq33s1Ib6se72SO4zgachT6
6tLuoBz2IUYOcRzfu4GobiLvHBBMICykN1mY1hvKOJyzy6og++K+gTh1atjzFBu8
M0gB
-----END CERTIFICATE-----
