Certificate:
    Data:
        Version: 3 (0x2)
        Serial Number: 305419906 (0x12345682)
        Signature Algorithm: sha256WithRSAEncryption
        Issuer: CN=SRK4_sha256_4096_65537_v3_ca
        Validity
            Not Before: Apr 22 13:10:18 2026 GMT
            Not After : Apr 17 13:10:18 2046 GMT
        Subject: CN=CSF4_1_sha256_4096_65537_v3_usr
        Subject Public Key Info:
            Public Key Algorithm: rsaEncryption
                Public-Key: (4096 bit)
                Modulus:
                    00:b8:d5:46:e4:88:6e:77:c2:ea:09:75:22:55:ca:
                    95:1a:96:1d:c8:fc:28:25:69:31:59:0b:f9:f5:f3:
                    f4:02:ca:a8:18:c9:f2:00:cf:9a:05:da:fe:99:2c:
                    9e:0f:ef:4a:80:0a:d4:8e:55:23:5b:e7:76:69:9d:
                    ad:24:c1:2e:a5:4b:e8:a4:9b:06:bd:a5:95:4a:01:
                    be:2e:bd:eb:82:17:41:01:4d:58:39:de:7e:92:4d:
                    51:62:03:3e:4d:d6:f3:e5:dd:60:d4:c4:d8:37:0d:
                    e4:40:b4:14:17:dd:5d:61:48:7b:08:9a:f3:5e:4d:
                    97:ba:af:d1:e6:5c:c0:d6:2c:ba:26:50:11:a5:f7:
                    5d:93:b1:b2:9c:55:bc:06:3b:69:af:d8:35:5a:b3:
                    33:47:2d:bb:72:30:f1:b2:c8:a6:97:35:ec:5f:16:
                    14:df:79:dc:05:1f:a7:d1:c8:28:2e:46:24:b8:8a:
                    24:0b:f2:0e:5c:09:db:1f:68:bb:40:0e:6b:44:99:
                    08:bc:52:04:19:da:1a:4d:e8:23:f1:54:70:c8:92:
                    1b:ad:6b:5b:6b:71:f4:d4:00:52:07:5c:79:1a:84:
                    d4:66:f1:16:7a:d0:54:70:98:8b:15:2d:9c:eb:60:
                    94:4b:a2:f4:2e:23:73:31:fd:f0:71:7b:d6:2e:b8:
                    50:ee:2c:b2:40:9a:d2:ec:98:f4:47:f3:69:1a:cc:
                    b8:5f:04:1a:f2:6c:39:b1:68:c0:dd:df:50:47:07:
                    64:6e:30:c2:8d:54:fb:0a:84:54:b7:2c:a5:1b:bf:
                    4b:4f:ed:88:e6:0f:c5:0a:6e:a9:ec:32:58:46:6c:
                    95:f3:37:7e:d3:8a:6d:24:95:b7:f9:06:e1:ff:99:
                    f4:35:91:6f:ab:86:dc:36:ef:e7:7a:aa:20:c4:07:
                    50:5f:15:2e:26:21:19:5b:18:85:d0:e4:4c:f6:8d:
                    7c:a6:0d:93:07:85:e2:cf:b4:32:3b:27:2a:1f:4e:
                    32:f4:aa:5b:ca:e0:fc:75:e5:59:0f:e4:21:e7:76:
                    8b:64:a5:03:e0:4e:2b:9f:c8:06:81:87:b7:2f:85:
                    38:b3:80:de:ba:e9:65:6b:a3:55:c7:79:aa:bc:5d:
                    17:74:9c:6b:3e:f1:41:0f:04:c0:a9:78:6d:86:bf:
                    5e:a1:75:39:3b:eb:cf:31:44:54:6c:2a:9d:58:e0:
                    52:ee:d8:93:85:8c:48:eb:08:15:c0:ca:a3:ec:8a:
                    f5:26:ea:62:7b:e0:a1:91:fc:7e:de:bc:71:67:41:
                    16:8c:ca:dc:41:96:f4:65:50:29:60:dc:21:f5:d4:
                    f9:8a:f9:cd:3f:3c:f3:4d:27:ae:99:0f:b7:88:b8:
                    0b:95:03
                Exponent: 65537 (0x10001)
        X509v3 extensions:
            X509v3 Basic Constraints: 
                CA:FALSE
            Netscape Comment: 
                OpenSSL Generated Certificate
            X509v3 Subject Key Identifier: 
                81:4C:0F:19:77:43:F2:37:C9:F9:CD:E0:29:BA:AF:6D:18:C7:8F:9A
            X509v3 Authority Key Identifier: 
                BE:91:64:AC:B0:B4:52:68:E2:84:9B:27:DD:64:B6:A4:1E:FC:EE:19
    Signature Algorithm: sha256WithRSAEncryption
    Signature Value:
        1d:5a:27:66:ad:cc:f7:dd:89:6d:4c:f2:e7:fb:78:49:b4:a8:
        f6:d0:b1:56:fd:02:4d:fb:f3:fe:07:22:0c:e0:b1:9a:45:a1:
        fd:8d:c5:14:ed:54:8b:f7:6d:50:80:cd:13:00:66:50:48:39:
        1f:f6:00:77:76:5b:d7:af:64:37:10:0a:f4:b2:16:ca:eb:c9:
        2c:ba:a3:1f:bf:78:96:7a:40:ca:4b:c0:1e:6e:a2:31:6b:3a:
        c7:94:41:de:e8:5e:c1:e8:b8:09:86:f1:a5:9e:ca:64:f3:53:
        17:48:ca:3f:09:f1:7f:26:46:29:ab:9e:e1:fa:56:44:c2:aa:
        bf:4d:7d:bb:42:e7:be:89:c7:25:0d:24:2d:32:97:93:64:13:
        ac:b5:c8:e4:0e:42:f4:d4:4e:ac:b7:95:f3:36:5f:0e:fa:48:
        f8:01:4d:0c:b6:42:96:b0:fb:3a:1a:58:92:f8:a9:d5:fa:a0:
        0a:f2:ac:80:5f:23:7b:9b:44:62:d2:07:45:27:38:30:7d:e1:
        e3:19:aa:33:46:36:31:8a:66:0d:ca:62:fe:e8:0f:01:71:10:
        db:bd:fc:a7:d4:33:09:88:12:71:d7:fb:8b:d0:6d:92:87:b4:
        2f:ea:8c:8c:93:7e:34:1d:d1:6a:61:3b:7b:be:33:f2:a2:ef:
        ce:d8:e5:81:76:72:1c:e4:51:26:cf:d7:2f:05:b4:df:09:74:
        3e:de:72:af:1a:25:01:eb:ef:a6:75:04:01:0f:19:45:4c:d0:
        4c:49:08:f9:03:88:41:ba:9b:65:35:4f:24:a4:6c:11:d8:58:
        f0:54:44:6d:1e:48:c4:74:9f:51:01:63:83:57:fa:05:eb:9b:
        93:22:30:51:b5:72:a4:31:86:2e:7e:b8:bf:41:8c:b9:af:15:
        7a:b6:f9:ad:3d:b4:eb:fb:e6:ce:78:0a:f8:98:eb:42:1b:6d:
        98:8a:d7:78:9c:cd:60:64:f6:6d:ca:78:c7:9e:16:5e:ea:ab:
        93:7f:e4:91:a7:93:6e:12:23:27:b7:ba:1f:92:e6:48:ec:87:
        8e:f8:72:ab:82:fb:53:46:bc:f3:3d:06:94:fd:9e:2d:75:3f:
        78:7e:12:1b:66:96:52:fe:be:61:c0:e8:22:d2:05:de:1c:33:
        62:a2:9c:3c:58:03:8c:83:57:b3:0a:fc:54:fe:3c:db:31:bd:
        97:0a:3b:10:c5:45:bd:8a:9d:e3:73:f7:65:8c:cd:07:40:d3:
        6c:dc:8c:48:47:a3:7b:bb:9c:a6:f0:fc:86:51:fc:bf:e5:f7:
        8e:7b:f6:76:62:26:78:94:c9:98:da:cf:80:2b:85:7b:18:e8:
        a8:95:a9:ac:97:2e:8e:6f
-----BEGIN CERTIFICATE-----
MIIFSjCCAzKgAwIBAgIEEjRWgjANBgkqhkiG9w0BAQsFADAnMSUwIwYDVQQDDBxT
Uks0X3NoYTI1Nl80MDk2XzY1NTM3X3YzX2NhMB4XDTI2MDQyMjEzMTAxOFoXDTQ2
MDQxNzEzMTAxOFowKjEoMCYGA1UEAwwfQ1NGNF8xX3NoYTI1Nl80MDk2XzY1NTM3
X3YzX3VzcjCCAiIwDQYJKoZIhvcNAQEBBQADggIPADCCAgoCggIBALjVRuSIbnfC
6gl1IlXKlRqWHcj8KCVpMVkL+fXz9ALKqBjJ8gDPmgXa/pksng/vSoAK1I5VI1vn
dmmdrSTBLqVL6KSbBr2llUoBvi6964IXQQFNWDnefpJNUWIDPk3W8+XdYNTE2DcN
5EC0FBfdXWFIewia815Nl7qv0eZcwNYsuiZQEaX3XZOxspxVvAY7aa/YNVqzM0ct
u3Iw8bLIppc17F8WFN953AUfp9HIKC5GJLiKJAvyDlwJ2x9ou0AOa0SZCLxSBBna
Gk3oI/FUcMiSG61rW2tx9NQAUgdceRqE1GbxFnrQVHCYixUtnOtglEui9C4jczH9
8HF71i64UO4sskCa0uyY9EfzaRrMuF8EGvJsObFowN3fUEcHZG4wwo1U+wqEVLcs
pRu/S0/tiOYPxQpuqewyWEZslfM3ftOKbSSVt/kG4f+Z9DWRb6uG3Dbv53qqIMQH
UF8VLiYhGVsYhdDkTPaNfKYNkweF4s+0MjsnKh9OMvSqW8rg/HXlWQ/kIed2i2Sl
A+BOK5/IBoGHty+FOLOA3rrpZWujVcd5qrxdF3Scaz7xQQ8EwKl4bYa/XqF1OTvr
zzFEVGwqnVjgUu7Yk4WMSOsIFcDKo+yK9SbqYnvgoZH8ft68cWdBFozK3EGW9GVQ
KWDcIfXU+Yr5zT88800nrpkPt4i4C5UDAgMBAAGjezB5MAkGA1UdEwQCMAAwLAYJ
YIZIAYb4QgENBB8WHU9wZW5TU0wgR2VuZXJhdGVkIENlcnRpZmljYXRlMB0GA1Ud
DgQWBBSBTA8Zd0PyN8n5zeApuq9tGMePmjAfBgNVHSMEGDAWgBS+kWSssLRSaOKE
myfdZLakHvzuGTANBgkqhkiG9w0BAQsFAAOCAgEAHVonZq3M992JbUzy5/t4SbSo
9tCxVv0CTfvz/gciDOCxmkWh/Y3FFO1Ui/dtUIDNEwBmUEg5H/YAd3Zb169kNxAK
9LIWyuvJLLqjH794lnpAykvAHm6iMWs6x5RB3uhewei4CYbxpZ7KZPNTF0jKPwnx
fyZGKaue4fpWRMKqv019u0LnvonHJQ0kLTKXk2QTrLXI5A5C9NROrLeV8zZfDvpI
+AFNDLZClrD7OhpYkvip1fqgCvKsgF8je5tEYtIHRSc4MH3h4xmqM0Y2MYpmDcpi
/ugPAXEQ2738p9QzCYgScdf7i9Btkoe0L+qMjJN+NB3RamE7e74z8qLvztjlgXZy
HORRJs/XLwW03wl0Pt5yrxolAevvpnUEAQ8ZRUzQTEkI+QOIQbqbZTVPJKRsEdhY
8FREbR5IxHSfUQFjg1f6BeubkyIwUbVypDGGLn64v0GMua8Verb5rT206/vmzngK
+JjrQhttmIrXeJzNYGT2bcp4x54WXuqrk3/kkaeTbhIjJ7e6H5LmSOyHjvhyq4L7
U0a88z0GlP2eLXU/eH4SG2aWUv6+YcDoItIF3hwzYqKcPFgDjINXswr8VP482zG9
lwo7EMVFvYqd43P3ZYzNB0DTbNyMSEeje7ucpvD8hlH8v+X3jnv2dmImeJTJmNrP
gCuFexjoqJWprJcujm8=
-----END CERTIFICATE-----
