Certificate:
    Data:
        Version: 3 (0x2)
        Serial Number: 305419900 (0x1234567c)
        Signature Algorithm: sha256WithRSAEncryption
        Issuer: CN=SRK2_sha256_4096_65537_v3_ca
        Validity
            Not Before: Apr 22 13:10:16 2026 GMT
            Not After : Apr 17 13:10:16 2046 GMT
        Subject: CN=CSF2_1_sha256_4096_65537_v3_usr
        Subject Public Key Info:
            Public Key Algorithm: rsaEncryption
                Public-Key: (4096 bit)
                Modulus:
                    00:d3:32:f3:87:94:48:1e:ce:fe:69:aa:d6:c0:c2:
                    f0:b6:4f:51:62:dd:ad:98:27:c7:30:d0:7b:b9:81:
                    64:7d:4d:0b:33:83:ac:03:04:f8:98:e3:d4:08:dc:
                    2d:90:8b:e7:92:df:90:95:5f:a5:ec:82:3b:ff:43:
                    b9:9f:40:6d:dc:85:e9:78:35:a2:18:cf:53:96:dc:
                    12:46:0d:41:7d:9c:9b:67:9e:61:00:c5:41:d2:55:
                    8c:86:4e:2f:43:fb:79:f0:8d:b5:8c:77:75:1f:db:
                    07:51:1d:a4:10:72:3b:06:04:a0:ae:f0:94:30:84:
                    ec:6c:49:39:f2:72:c7:6f:78:0c:35:1e:62:e1:d3:
                    7e:f6:6c:86:31:95:67:c3:75:b9:1d:1f:36:8f:a5:
                    8a:f2:32:99:44:04:11:c0:33:0d:85:7d:38:7a:fb:
                    c7:3b:b4:81:37:6d:9c:eb:05:e2:bd:be:f1:e3:aa:
                    13:8f:d2:17:b6:17:79:f6:c7:77:60:f4:75:34:e7:
                    cb:9b:c1:30:13:bd:3c:0f:89:c6:60:2d:40:f6:d5:
                    a6:01:cb:96:a1:ca:b9:f5:a7:e7:55:72:a5:a1:48:
                    f8:e7:8e:3c:d2:bd:c9:6b:64:fb:d4:63:c9:f0:4a:
                    83:78:91:38:e3:da:e1:a4:fe:f9:44:25:74:74:84:
                    62:37:5e:4b:15:56:70:79:a3:2a:34:72:89:c6:d0:
                    ff:67:ad:75:b8:2a:8f:9e:fc:84:6c:08:bc:d1:e2:
                    cb:a3:01:a9:46:7c:9f:36:35:ba:5d:aa:a0:cd:6f:
                    a9:14:e1:dc:8b:0f:12:dd:d9:75:45:79:c0:98:72:
                    d0:59:c6:b6:3d:51:af:6b:75:01:a1:d3:6a:e8:ba:
                    64:4a:6b:66:45:5c:ce:9a:29:d4:51:1a:8e:b9:15:
                    da:d2:eb:f4:10:a1:5e:3d:ae:3f:46:da:2b:72:2f:
                    df:3e:80:f8:f2:39:2f:8c:61:30:d5:5a:1e:27:20:
                    e1:a1:b9:be:f4:e6:64:b1:fb:26:47:a7:ec:d7:9f:
                    c7:21:47:3f:c5:69:0c:1d:24:a5:11:a9:25:06:bf:
                    50:41:a8:50:b2:ec:0a:fa:9f:13:6e:42:26:6e:60:
                    0d:ad:2b:4d:84:32:e3:ac:42:fb:77:68:cf:c6:7f:
                    56:07:59:5d:6e:b2:06:f2:f2:f8:9d:a5:75:12:4c:
                    df:2e:9e:56:9d:b4:d2:20:ed:ea:d6:68:a2:6a:f0:
                    2e:09:fc:66:00:0c:ba:10:9a:38:15:a3:8d:ad:16:
                    a5:75:ac:d7:06:45:6c:38:bb:b3:bb:82:a6:22:c1:
                    d3:7d:ff:8a:d7:4f:38:5a:00:a7:c8:35:7e:6e:55:
                    77:88:d1
                Exponent: 65537 (0x10001)
        X509v3 extensions:
            X509v3 Basic Constraints: 
                CA:FALSE
            Netscape Comment: 
                OpenSSL Generated Certificate
            X509v3 Subject Key Identifier: 
                2D:20:C2:77:70:E0:A4:A9:A1:6C:EE:73:EF:DC:AC:EA:33:1A:0D:3F
            X509v3 Authority Key Identifier: 
                BE:18:94:14:B6:25:0D:92:A9:1A:DF:5C:73:A2:10:F0:18:EC:10:7C
    Signature Algorithm: sha256WithRSAEncryption
    Signature Value:
        9f:9b:90:d0:8b:cb:6a:dc:f6:81:a5:3b:cb:b2:dd:f0:fb:84:
        21:00:b0:86:09:37:b6:42:f4:e0:a3:8a:de:6a:1d:6f:09:18:
        9f:9d:f8:80:36:de:73:b2:b0:5d:20:76:f1:33:f2:de:e5:b9:
        f5:23:94:b7:45:4b:82:73:12:00:84:26:e0:03:19:02:3c:9f:
        4e:da:1e:bc:0e:34:4e:51:b9:e5:6d:60:1a:39:06:a1:a0:59:
        a9:44:35:cb:d4:cb:52:b4:8c:92:08:46:12:fd:39:8a:08:92:
        1e:42:97:e5:ce:80:86:8a:35:ed:ba:e2:74:a4:59:00:de:41:
        79:61:18:9f:d4:74:ad:15:ce:5c:c0:76:b9:62:3a:06:c9:42:
        b0:9b:42:89:c7:80:2a:60:40:7d:fd:32:7c:0d:4b:fe:a9:12:
        96:50:f9:95:6c:e1:f3:2d:53:ba:21:4b:bd:6d:bb:e3:fa:e7:
        e6:6a:ef:56:0a:d6:cf:6e:46:53:69:21:1e:98:47:36:c2:a7:
        7e:5a:4e:90:ba:19:41:e4:fc:4b:49:36:57:c9:93:7f:00:a7:
        94:f6:92:8e:02:c2:fd:c5:a3:25:15:ea:fa:cb:ec:75:04:c7:
        93:e1:03:ae:6d:6e:89:fe:99:98:ec:1a:05:6e:09:f3:b7:55:
        99:d2:00:68:e7:c1:d6:a1:9f:32:dd:64:27:30:ed:54:4c:b6:
        90:9a:6a:15:ce:5d:2b:2b:6c:0f:f6:d2:1e:c5:ba:d5:37:70:
        cd:f6:d4:fa:89:bd:06:e7:ec:48:35:a0:ae:44:d1:07:25:55:
        7e:4d:a6:61:44:b0:8c:3e:d4:73:e5:c7:ec:57:0c:00:ed:dc:
        3b:68:23:47:2a:8d:2a:46:91:c0:4c:33:c1:02:19:46:c4:67:
        a2:db:55:ee:0b:b6:ee:33:73:78:e9:9d:22:62:42:20:0b:18:
        10:34:a3:6e:a7:55:64:81:5b:8a:8d:8c:96:65:31:e4:33:d2:
        49:40:f8:97:ba:7f:66:ef:f6:e7:ae:7c:9a:a4:88:ba:ea:1b:
        4c:1b:98:4b:91:b2:b7:8e:63:04:38:5d:a7:19:16:8a:33:8a:
        ed:99:34:24:40:50:1c:e1:8b:ac:5d:39:4b:d1:b4:d7:03:0b:
        9e:23:b7:cd:82:43:77:d2:80:f6:dc:c9:6a:23:60:d3:98:2f:
        ab:5b:aa:51:c0:82:61:a1:31:4d:7e:81:38:a7:a2:fb:88:0d:
        d5:e3:79:ff:28:be:ab:75:be:0a:40:71:9e:77:ef:46:ca:4b:
        4f:11:00:7d:a8:fc:c7:c4:ec:2a:70:52:36:af:47:5e:23:f8:
        3f:72:98:4b:e2:8b:f2:5c
-----BEGIN CERTIFICATE-----
MIIFSjCCAzKgAwIBAgIEEjRWfDANBgkqhkiG9w0BAQsFADAnMSUwIwYDVQQDDBxT
UksyX3NoYTI1Nl80MDk2XzY1NTM3X3YzX2NhMB4XDTI2MDQyMjEzMTAxNloXDTQ2
MDQxNzEzMTAxNlowKjEoMCYGA1UEAwwfQ1NGMl8xX3NoYTI1Nl80MDk2XzY1NTM3
X3YzX3VzcjCCAiIwDQYJKoZIhvcNAQEBBQADggIPADCCAgoCggIBANMy84eUSB7O
/mmq1sDC8LZPUWLdrZgnxzDQe7mBZH1NCzODrAME+Jjj1AjcLZCL55LfkJVfpeyC
O/9DuZ9AbdyF6Xg1ohjPU5bcEkYNQX2cm2eeYQDFQdJVjIZOL0P7efCNtYx3dR/b
B1EdpBByOwYEoK7wlDCE7GxJOfJyx294DDUeYuHTfvZshjGVZ8N1uR0fNo+livIy
mUQEEcAzDYV9OHr7xzu0gTdtnOsF4r2+8eOqE4/SF7YXefbHd2D0dTTny5vBMBO9
PA+JxmAtQPbVpgHLlqHKufWn51VypaFI+OeOPNK9yWtk+9RjyfBKg3iROOPa4aT+
+UQldHSEYjdeSxVWcHmjKjRyicbQ/2etdbgqj578hGwIvNHiy6MBqUZ8nzY1ul2q
oM1vqRTh3IsPEt3ZdUV5wJhy0FnGtj1Rr2t1AaHTaui6ZEprZkVczpop1FEajrkV
2tLr9BChXj2uP0baK3Iv3z6A+PI5L4xhMNVaHicg4aG5vvTmZLH7Jken7NefxyFH
P8VpDB0kpRGpJQa/UEGoULLsCvqfE25CJm5gDa0rTYQy46xC+3doz8Z/VgdZXW6y
BvLy+J2ldRJM3y6eVp200iDt6tZoomrwLgn8ZgAMuhCaOBWjja0WpXWs1wZFbDi7
s7uCpiLB033/itdPOFoAp8g1fm5Vd4jRAgMBAAGjezB5MAkGA1UdEwQCMAAwLAYJ
YIZIAYb4QgENBB8WHU9wZW5TU0wgR2VuZXJhdGVkIENlcnRpZmljYXRlMB0GA1Ud
DgQWBBQtIMJ3cOCkqaFs7nPv3KzqMxoNPzAfBgNVHSMEGDAWgBS+GJQUtiUNkqka
31xzohDwGOwQfDANBgkqhkiG9w0BAQsFAAOCAgEAn5uQ0IvLatz2gaU7y7Ld8PuE
IQCwhgk3tkL04KOK3modbwkYn534gDbec7KwXSB28TPy3uW59SOUt0VLgnMSAIQm
4AMZAjyfTtoevA40TlG55W1gGjkGoaBZqUQ1y9TLUrSMkghGEv05igiSHkKX5c6A
hoo17bridKRZAN5BeWEYn9R0rRXOXMB2uWI6BslCsJtCiceAKmBAff0yfA1L/qkS
llD5lWzh8y1TuiFLvW274/rn5mrvVgrWz25GU2khHphHNsKnflpOkLoZQeT8S0k2
V8mTfwCnlPaSjgLC/cWjJRXq+svsdQTHk+EDrm1uif6ZmOwaBW4J87dVmdIAaOfB
1qGfMt1kJzDtVEy2kJpqFc5dKytsD/bSHsW61TdwzfbU+om9BufsSDWgrkTRByVV
fk2mYUSwjD7Uc+XH7FcMAO3cO2gjRyqNKkaRwEwzwQIZRsRnottV7gu27jNzeOmd
ImJCIAsYEDSjbqdVZIFbio2MlmUx5DPSSUD4l7p/Zu/25658mqSIuuobTBuYS5Gy
t45jBDhdpxkWijOK7Zk0JEBQHOGLrF05S9G01wMLniO3zYJDd9KA9tzJaiNg05gv
q1uqUcCCYaExTX6BOKei+4gN1eN5/yi+q3W+CkBxnnfvRspLTxEAfaj8x8TsKnBS
Nq9HXiP4P3KYS+KL8lw=
-----END CERTIFICATE-----
