Certificate:
    Data:
        Version: 3 (0x2)
        Serial Number: 305419907 (0x12345683)
        Signature Algorithm: sha256WithRSAEncryption
        Issuer: CN=SRK4_sha256_4096_65537_v3_ca
        Validity
            Not Before: Apr 22 13:10:18 2026 GMT
            Not After : Apr 17 13:10:18 2046 GMT
        Subject: CN=IMG4_1_sha256_4096_65537_v3_usr
        Subject Public Key Info:
            Public Key Algorithm: rsaEncryption
                Public-Key: (4096 bit)
                Modulus:
                    00:96:04:60:ef:9a:c9:4c:06:95:19:50:cb:01:0f:
                    e7:02:58:54:46:a7:04:1d:39:95:0c:87:c2:c6:c3:
                    28:f1:51:ef:7f:45:51:b2:96:0f:ea:8c:17:fc:78:
                    4d:4c:94:d6:2c:ab:e5:39:bc:3a:40:fb:76:66:72:
                    fe:8d:35:e0:3e:99:97:cf:7d:d9:a1:30:77:6b:a7:
                    fd:ce:16:f1:e3:04:ad:06:d8:83:c4:bc:ed:93:54:
                    2b:85:12:b4:84:a8:5c:c5:fe:03:19:ce:ed:2e:0f:
                    b5:98:fa:ba:dc:6e:0b:d0:46:04:47:fd:d2:d7:b9:
                    c2:58:19:50:df:bd:a8:74:c2:eb:09:12:6b:a5:aa:
                    3a:71:4d:9e:ef:18:d7:ae:88:9a:43:9b:28:29:c9:
                    9a:d3:6c:27:55:8d:1a:c2:8d:3a:f8:46:a7:40:48:
                    82:df:06:e9:77:7b:ae:ec:4d:e7:22:9e:a6:6f:fd:
                    f9:b9:71:57:1b:79:18:ca:7a:61:16:f1:91:e7:59:
                    94:4e:d0:86:d4:94:f0:79:82:c1:5f:d1:d3:6e:86:
                    59:2b:8b:14:5b:1b:bf:65:4f:68:07:e2:83:ee:ab:
                    93:a3:d6:f9:c5:d1:5a:cd:28:2f:61:32:95:40:07:
                    e0:ee:6e:5b:8e:ed:36:80:fa:12:a5:9f:44:56:ec:
                    71:19:bc:d7:7d:8e:98:e3:be:b0:03:9c:05:04:fe:
                    94:2d:29:31:ff:5b:6d:2a:9a:a2:f4:6a:4c:6d:bb:
                    0e:b3:98:2d:e5:2a:5f:2e:6a:1e:97:63:93:4e:3c:
                    5c:20:22:83:fc:17:4b:76:c4:02:66:f2:9f:9d:b9:
                    99:e3:d5:32:6c:af:fc:67:4c:d1:75:68:55:55:f5:
                    9f:05:d7:40:5c:06:b6:c4:6c:9b:03:61:86:73:8e:
                    ec:af:de:ce:58:38:88:57:5f:12:02:1b:6a:96:ce:
                    f1:29:97:4d:8e:88:80:16:dd:9a:80:b2:e0:3f:fe:
                    83:38:c5:c1:48:29:7c:5e:d3:95:fc:50:b7:ab:a0:
                    ad:68:31:12:0c:14:58:3b:65:c4:39:c2:de:f7:97:
                    d7:d3:21:72:c8:77:51:77:08:b5:d0:7d:26:a5:c0:
                    41:52:1e:d9:d6:09:47:3d:23:76:c1:59:3b:2f:23:
                    d4:f8:4f:6c:c8:90:84:69:bb:44:38:61:27:95:48:
                    8e:db:d1:ea:8a:a1:48:7f:32:1a:55:b0:66:fb:87:
                    20:93:22:43:bf:77:69:ef:2f:a7:4d:44:a9:c8:75:
                    65:a8:28:b5:99:3d:48:39:7d:94:4f:c3:62:03:95:
                    54:d6:b5:30:72:d5:b4:f3:64:db:03:48:bc:40:d9:
                    65:4e:29
                Exponent: 65537 (0x10001)
        X509v3 extensions:
            X509v3 Basic Constraints: 
                CA:FALSE
            Netscape Comment: 
                OpenSSL Generated Certificate
            X509v3 Subject Key Identifier: 
                E6:62:77:67:EC:C6:3B:34:A6:7A:DE:44:B2:89:3C:F8:AA:2E:4B:33
            X509v3 Authority Key Identifier: 
                BE:91:64:AC:B0:B4:52:68:E2:84:9B:27:DD:64:B6:A4:1E:FC:EE:19
    Signature Algorithm: sha256WithRSAEncryption
    Signature Value:
        71:ba:e9:10:8f:0c:71:a0:74:e8:81:58:f7:c6:88:a9:38:e1:
        8d:90:7a:e5:fb:a1:ed:74:9c:51:14:1c:0d:31:b5:aa:41:e1:
        5a:6a:b2:cc:23:1a:40:54:37:c8:7f:ee:ab:4c:b4:b4:3e:b0:
        6b:e9:62:56:01:54:aa:03:b1:ad:25:ef:e2:8d:90:b3:d1:b4:
        8d:4a:27:4a:42:f1:c5:a4:11:4f:e3:cc:86:44:30:de:12:13:
        e1:ed:5c:23:34:31:b8:ef:81:09:6c:33:c2:11:87:ee:65:05:
        90:d1:b5:86:66:d6:d4:89:db:03:91:39:bc:c1:63:e4:a8:75:
        2d:b2:42:75:96:c8:1b:7e:44:06:28:91:52:0a:71:e3:56:6c:
        c1:d8:11:9f:6d:ca:8a:4e:bd:cc:ca:ca:70:bb:90:db:4c:4c:
        d9:6e:57:63:71:c6:44:09:36:61:4b:7f:bf:69:52:ab:b2:39:
        76:91:a1:f7:02:e5:99:65:59:51:80:c3:ca:ed:7c:0e:7c:ef:
        e7:bc:ec:d0:43:ce:bf:a0:74:e5:c7:10:7f:31:a9:ef:d4:a7:
        7b:94:2b:ab:56:4b:92:2c:36:50:dc:6f:43:49:ce:b9:7d:b4:
        46:de:34:c6:ba:62:91:53:61:94:9d:d6:1c:a3:3b:e9:4f:10:
        96:2b:0c:70:9a:33:2b:e2:e5:33:b5:79:15:7f:42:81:94:5d:
        f5:37:cd:0d:3b:ee:ae:55:82:4d:fb:05:e3:56:f0:b0:7f:8e:
        cc:21:a1:4c:a1:dc:fe:d9:b3:c7:93:a4:8d:e8:b7:9f:08:c6:
        6e:99:8b:9b:62:4b:c1:ca:b3:d5:eb:34:a0:4c:fb:d9:54:fa:
        e3:a6:2e:57:23:fe:d6:57:7e:93:b5:91:d2:ea:d3:29:45:b2:
        c7:3a:62:12:de:18:5f:09:ad:13:8d:5c:b3:c7:5f:ca:56:2e:
        19:8f:28:d1:7b:57:84:fa:41:84:2d:85:f2:b5:9c:07:5f:b8:
        2c:19:de:f5:e6:c4:e1:e0:3a:32:fd:be:a4:15:8f:2f:5e:7d:
        f0:f6:4b:d1:a2:fe:a3:bd:bf:70:89:55:a3:e0:36:bd:8b:bf:
        06:f2:a8:5b:be:20:c2:17:74:aa:c1:94:9d:16:b8:7d:b0:b1:
        64:7b:f2:3e:6f:72:cb:8b:72:fe:80:ef:40:2b:43:f3:60:96:
        13:09:b2:f7:1e:dc:08:bd:a1:88:f7:5b:10:83:96:21:48:32:
        7e:2e:a6:fd:5b:59:54:03:ec:09:6f:19:30:93:2f:c2:c1:e5:
        ee:2e:44:24:11:38:e0:1d:d2:35:b3:a6:13:46:86:80:da:66:
        b0:55:13:fe:72:b0:7d:da
-----BEGIN CERTIFICATE-----
MIIFSjCCAzKgAwIBAgIEEjRWgzANBgkqhkiG9w0BAQsFADAnMSUwIwYDVQQDDBxT
Uks0X3NoYTI1Nl80MDk2XzY1NTM3X3YzX2NhMB4XDTI2MDQyMjEzMTAxOFoXDTQ2
MDQxNzEzMTAxOFowKjEoMCYGA1UEAwwfSU1HNF8xX3NoYTI1Nl80MDk2XzY1NTM3
X3YzX3VzcjCCAiIwDQYJKoZIhvcNAQEBBQADggIPADCCAgoCggIBAJYEYO+ayUwG
lRlQywEP5wJYVEanBB05lQyHwsbDKPFR739FUbKWD+qMF/x4TUyU1iyr5Tm8OkD7
dmZy/o014D6Zl8992aEwd2un/c4W8eMErQbYg8S87ZNUK4UStISoXMX+AxnO7S4P
tZj6utxuC9BGBEf90te5wlgZUN+9qHTC6wkSa6WqOnFNnu8Y166ImkObKCnJmtNs
J1WNGsKNOvhGp0BIgt8G6Xd7ruxN5yKepm/9+blxVxt5GMp6YRbxkedZlE7QhtSU
8HmCwV/R026GWSuLFFsbv2VPaAfig+6rk6PW+cXRWs0oL2EylUAH4O5uW47tNoD6
EqWfRFbscRm8132OmOO+sAOcBQT+lC0pMf9bbSqaovRqTG27DrOYLeUqXy5qHpdj
k048XCAig/wXS3bEAmbyn525mePVMmyv/GdM0XVoVVX1nwXXQFwGtsRsmwNhhnOO
7K/ezlg4iFdfEgIbapbO8SmXTY6IgBbdmoCy4D/+gzjFwUgpfF7TlfxQt6ugrWgx
EgwUWDtlxDnC3veX19Mhcsh3UXcItdB9JqXAQVIe2dYJRz0jdsFZOy8j1PhPbMiQ
hGm7RDhhJ5VIjtvR6oqhSH8yGlWwZvuHIJMiQ793ae8vp01Eqch1ZagotZk9SDl9
lE/DYgOVVNa1MHLVtPNk2wNIvEDZZU4pAgMBAAGjezB5MAkGA1UdEwQCMAAwLAYJ
YIZIAYb4QgENBB8WHU9wZW5TU0wgR2VuZXJhdGVkIENlcnRpZmljYXRlMB0GA1Ud
DgQWBBTmYndn7MY7NKZ63kSyiTz4qi5LMzAfBgNVHSMEGDAWgBS+kWSssLRSaOKE
myfdZLakHvzuGTANBgkqhkiG9w0BAQsFAAOCAgEAcbrpEI8McaB06IFY98aIqTjh
jZB65fuh7XScURQcDTG1qkHhWmqyzCMaQFQ3yH/uq0y0tD6wa+liVgFUqgOxrSXv
4o2Qs9G0jUonSkLxxaQRT+PMhkQw3hIT4e1cIzQxuO+BCWwzwhGH7mUFkNG1hmbW
1InbA5E5vMFj5Kh1LbJCdZbIG35EBiiRUgpx41ZswdgRn23Kik69zMrKcLuQ20xM
2W5XY3HGRAk2YUt/v2lSq7I5dpGh9wLlmWVZUYDDyu18Dnzv57zs0EPOv6B05ccQ
fzGp79Sne5Qrq1ZLkiw2UNxvQ0nOuX20Rt40xrpikVNhlJ3WHKM76U8QlisMcJoz
K+LlM7V5FX9CgZRd9TfNDTvurlWCTfsF41bwsH+OzCGhTKHc/tmzx5Okjei3nwjG
bpmLm2JLwcqz1es0oEz72VT646YuVyP+1ld+k7WR0urTKUWyxzpiEt4YXwmtE41c
s8dfylYuGY8o0XtXhPpBhC2F8rWcB1+4LBne9ebE4eA6Mv2+pBWPL1598PZL0aL+
o72/cIlVo+A2vYu/BvKoW74gwhd0qsGUnRa4fbCxZHvyPm9yy4ty/oDvQCtD82CW
Ewmy9x7cCL2hiPdbEIOWIUgyfi6m/VtZVAPsCW8ZMJMvwsHl7i5EJBE44B3SNbOm
E0aGgNpmsFUT/nKwfdo=
-----END CERTIFICATE-----
