Certificate:
    Data:
        Version: 3 (0x2)
        Serial Number: 305419904 (0x12345680)
        Signature Algorithm: sha256WithRSAEncryption
        Issuer: CN=SRK3_sha256_4096_65537_v3_ca
        Validity
            Not Before: Apr 22 13:10:17 2026 GMT
            Not After : Apr 17 13:10:17 2046 GMT
        Subject: CN=IMG3_1_sha256_4096_65537_v3_usr
        Subject Public Key Info:
            Public Key Algorithm: rsaEncryption
                Public-Key: (4096 bit)
                Modulus:
                    00:f3:2f:f6:60:fa:0a:55:30:5c:23:11:64:9f:e2:
                    f9:7f:5c:51:b3:92:a7:cb:c2:3c:a4:b9:31:a6:4e:
                    0e:86:5d:a6:e8:fa:a4:93:14:94:43:b9:9d:35:1d:
                    e2:b7:40:23:2f:c0:9f:53:ee:6c:49:e5:c4:97:e0:
                    f6:83:e2:89:fa:06:d8:5d:af:dd:7a:9f:57:ed:63:
                    bd:87:63:d8:cc:86:94:43:b4:9a:5e:fc:74:60:6d:
                    b7:f2:57:78:be:0a:4d:f3:7e:55:d5:9f:29:a1:88:
                    36:e0:75:98:ef:2a:f7:2c:6f:6e:e4:c3:9f:3b:80:
                    d1:d0:4c:5f:35:88:f2:55:c2:e9:d9:fc:a7:2f:1e:
                    7b:45:4d:ea:17:16:6f:7e:3a:cf:81:a6:66:39:e4:
                    1c:4b:c5:b3:29:2f:0c:76:96:49:cf:05:54:28:65:
                    b1:62:a6:84:69:8a:60:b2:12:01:e1:b3:d7:e2:bf:
                    86:1d:a3:95:d3:b3:aa:b9:f1:e7:41:01:21:de:ee:
                    22:7f:23:94:53:6a:a5:0e:c2:9e:6d:fb:6b:3d:72:
                    cd:90:af:47:fe:93:31:29:c1:a9:7b:f4:40:2a:64:
                    39:28:da:5a:93:da:65:b8:c7:d9:c3:85:eb:dc:ee:
                    bc:09:5f:57:67:c0:f3:bd:2c:e9:1a:0a:79:14:7e:
                    51:73:9a:8e:e9:f1:07:c7:dc:bf:ff:57:4e:ad:4e:
                    b1:99:b4:5c:92:88:a7:d2:7e:0b:f3:51:4c:d1:12:
                    4e:51:f9:35:0f:5c:0d:5b:cc:94:6a:80:8c:62:fb:
                    72:ba:f6:29:b2:4d:70:81:66:ba:bb:26:39:20:98:
                    8d:72:f8:7a:26:55:8b:68:96:df:78:e2:fd:e4:50:
                    52:20:b2:99:96:83:73:8d:53:3d:40:f8:2c:c8:e2:
                    18:7a:db:2c:8e:97:99:44:6a:04:ae:fb:67:4f:46:
                    94:9d:11:a0:c7:cd:6f:f1:22:58:49:38:16:fa:e2:
                    2c:bc:d1:81:0f:4a:41:0c:19:81:39:f3:fd:17:26:
                    86:aa:f6:9b:a0:4f:f0:92:f1:e3:96:99:f2:51:a0:
                    14:d3:08:58:49:1b:91:ae:7c:c6:5d:88:ed:bb:61:
                    8d:cc:5c:9a:e8:f9:c1:ac:0e:c2:5e:aa:5c:92:08:
                    37:93:7b:f6:9e:54:c9:74:c5:c9:98:a8:1b:11:b6:
                    5a:59:94:4c:72:da:eb:da:23:73:d9:82:59:3e:f1:
                    1b:87:3d:cb:30:e2:bd:0b:c9:12:ff:ae:92:b2:2a:
                    91:4b:3a:f9:ae:19:b5:ce:f1:30:ee:17:49:9b:ef:
                    74:d2:de:cb:91:e2:ee:1e:6b:e8:7a:07:f5:40:c2:
                    f3:ab:43
                Exponent: 65537 (0x10001)
        X509v3 extensions:
            X509v3 Basic Constraints: 
                CA:FALSE
            Netscape Comment: 
                OpenSSL Generated Certificate
            X509v3 Subject Key Identifier: 
                0F:70:9A:A7:EF:D4:DA:52:29:E1:34:32:77:95:3F:D6:73:F8:B5:92
            X509v3 Authority Key Identifier: 
                3B:2F:59:FF:97:D6:FA:6F:96:38:7D:77:DD:47:0F:F5:85:8B:C6:C2
    Signature Algorithm: sha256WithRSAEncryption
    Signature Value:
        60:b3:c1:52:38:ef:b2:2d:49:38:4f:a3:72:8b:06:03:ad:a5:
        8f:56:ee:a5:90:03:e8:a5:28:dc:05:5d:22:8e:2c:ad:5a:ab:
        41:45:d5:7f:a7:c1:31:93:fa:39:a4:48:d3:c9:12:60:17:c7:
        af:7b:ef:06:be:76:52:fa:f2:4b:aa:30:ed:88:a7:1a:f3:ef:
        d7:97:aa:91:29:32:73:d4:04:a3:23:f5:1a:69:2b:58:51:c0:
        a1:4b:97:7f:ae:dd:18:ab:54:42:53:6d:e1:c7:36:f8:0a:0f:
        a6:0f:ce:63:7b:49:b5:d2:42:c9:89:b9:8d:08:4c:c6:58:49:
        17:bd:da:f1:7a:87:62:62:7a:ab:de:39:ba:8d:6e:1b:22:07:
        4d:4d:f4:78:86:b2:fa:3a:ec:bf:9c:f1:15:66:4d:2b:1c:53:
        7b:12:d7:eb:87:4c:de:4c:fe:b0:9c:81:48:ce:86:61:ac:eb:
        ce:41:be:66:d8:c9:d4:c8:17:96:c3:2f:5b:e8:a7:19:1b:60:
        43:cd:62:ac:1c:32:42:40:24:f7:c6:8c:f4:3e:29:81:d8:67:
        3c:dc:f2:63:16:b5:3e:b1:48:ec:9c:3d:3f:87:31:90:be:db:
        96:d7:23:0a:0a:ec:36:6e:dc:c2:8f:63:ab:45:c2:04:5b:28:
        b5:a7:8e:19:63:f0:d1:39:71:fe:71:2d:c2:c5:46:16:82:1f:
        90:11:6d:8f:ec:22:e6:09:07:b9:78:ef:01:52:73:50:38:f8:
        d1:f8:d5:01:8f:d3:b3:c6:8a:0a:9d:02:17:bf:fe:6e:da:d1:
        26:95:7f:3f:2d:4c:b2:9c:1a:5a:bf:eb:19:0b:d8:ba:e1:59:
        5d:a4:99:71:4a:af:fe:22:6a:44:7e:58:e4:e1:5d:56:38:af:
        57:4b:c7:d5:bb:42:ff:3a:0b:5d:16:bb:2b:f0:00:31:5f:5e:
        73:fb:69:28:25:7d:f8:b8:8c:6e:06:f8:74:05:cf:63:fa:64:
        72:6c:f2:81:51:ae:f7:0b:e7:e3:32:13:1e:69:14:4e:db:48:
        ce:e4:3d:e8:e1:96:4f:f3:33:11:5f:28:98:ae:cd:0b:9e:50:
        b4:8a:0c:50:ad:12:e5:ca:ed:c6:1f:5c:99:eb:c8:76:b8:e4:
        9a:10:96:62:dd:35:72:dd:53:54:06:b3:02:88:c4:1c:1c:d9:
        a8:75:e5:aa:b8:78:d0:55:c3:71:37:34:de:5c:08:ce:c5:3e:
        00:5d:4f:68:d7:67:01:9f:57:b8:1f:d1:d0:7f:7e:33:5d:44:
        e3:ff:c6:08:5d:93:63:83:c8:98:6f:c2:c8:5e:94:24:67:11:
        10:a5:1a:24:3f:51:06:26
-----BEGIN CERTIFICATE-----
MIIFSjCCAzKgAwIBAgIEEjRWgDANBgkqhkiG9w0BAQsFADAnMSUwIwYDVQQDDBxT
UkszX3NoYTI1Nl80MDk2XzY1NTM3X3YzX2NhMB4XDTI2MDQyMjEzMTAxN1oXDTQ2
MDQxNzEzMTAxN1owKjEoMCYGA1UEAwwfSU1HM18xX3NoYTI1Nl80MDk2XzY1NTM3
X3YzX3VzcjCCAiIwDQYJKoZIhvcNAQEBBQADggIPADCCAgoCggIBAPMv9mD6ClUw
XCMRZJ/i+X9cUbOSp8vCPKS5MaZODoZdpuj6pJMUlEO5nTUd4rdAIy/An1PubEnl
xJfg9oPiifoG2F2v3XqfV+1jvYdj2MyGlEO0ml78dGBtt/JXeL4KTfN+VdWfKaGI
NuB1mO8q9yxvbuTDnzuA0dBMXzWI8lXC6dn8py8ee0VN6hcWb346z4GmZjnkHEvF
sykvDHaWSc8FVChlsWKmhGmKYLISAeGz1+K/hh2jldOzqrnx50EBId7uIn8jlFNq
pQ7Cnm37az1yzZCvR/6TMSnBqXv0QCpkOSjaWpPaZbjH2cOF69zuvAlfV2fA870s
6RoKeRR+UXOajunxB8fcv/9XTq1OsZm0XJKIp9J+C/NRTNESTlH5NQ9cDVvMlGqA
jGL7crr2KbJNcIFmursmOSCYjXL4eiZVi2iW33ji/eRQUiCymZaDc41TPUD4LMji
GHrbLI6XmURqBK77Z09GlJ0RoMfNb/EiWEk4FvriLLzRgQ9KQQwZgTnz/Rcmhqr2
m6BP8JLx45aZ8lGgFNMIWEkbka58xl2I7bthjcxcmuj5wawOwl6qXJIIN5N79p5U
yXTFyZioGxG2WlmUTHLa69ojc9mCWT7xG4c9yzDivQvJEv+ukrIqkUs6+a4Ztc7x
MO4XSZvvdNLey5Hi7h5r6HoH9UDC86tDAgMBAAGjezB5MAkGA1UdEwQCMAAwLAYJ
YIZIAYb4QgENBB8WHU9wZW5TU0wgR2VuZXJhdGVkIENlcnRpZmljYXRlMB0GA1Ud
DgQWBBQPcJqn79TaUinhNDJ3lT/Wc/i1kjAfBgNVHSMEGDAWgBQ7L1n/l9b6b5Y4
fXfdRw/1hYvGwjANBgkqhkiG9w0BAQsFAAOCAgEAYLPBUjjvsi1JOE+jcosGA62l
j1bupZAD6KUo3AVdIo4srVqrQUXVf6fBMZP6OaRI08kSYBfHr3vvBr52UvryS6ow
7YinGvPv15eqkSkyc9QEoyP1GmkrWFHAoUuXf67dGKtUQlNt4cc2+AoPpg/OY3tJ
tdJCyYm5jQhMxlhJF73a8XqHYmJ6q945uo1uGyIHTU30eIay+jrsv5zxFWZNKxxT
exLX64dM3kz+sJyBSM6GYazrzkG+ZtjJ1MgXlsMvW+inGRtgQ81irBwyQkAk98aM
9D4pgdhnPNzyYxa1PrFI7Jw9P4cxkL7bltcjCgrsNm7cwo9jq0XCBFsotaeOGWPw
0Tlx/nEtwsVGFoIfkBFtj+wi5gkHuXjvAVJzUDj40fjVAY/Ts8aKCp0CF7/+btrR
JpV/Py1MspwaWr/rGQvYuuFZXaSZcUqv/iJqRH5Y5OFdVjivV0vH1btC/zoLXRa7
K/AAMV9ec/tpKCV9+LiMbgb4dAXPY/pkcmzygVGu9wvn4zITHmkUTttIzuQ96OGW
T/MzEV8omK7NC55QtIoMUK0S5crtxh9cmevIdrjkmhCWYt01ct1TVAazAojEHBzZ
qHXlqrh40FXDcTc03lwIzsU+AF1PaNdnAZ9XuB/R0H9+M11E4//GCF2TY4PImG/C
yF6UJGcREKUaJD9RBiY=
-----END CERTIFICATE-----
