Certificate:
    Data:
        Version: 3 (0x2)
        Serial Number: 305419896 (0x12345678)
        Signature Algorithm: sha256WithRSAEncryption
        Issuer: CN=CA1_sha256_4096_65537_v3_ca
        Validity
            Not Before: Apr 22 13:10:14 2026 GMT
            Not After : Apr 17 13:10:14 2046 GMT
        Subject: CN=SRK1_sha256_4096_65537_v3_ca
        Subject Public Key Info:
            Public Key Algorithm: rsaEncryption
                Public-Key: (4096 bit)
                Modulus:
                    00:e2:1c:ee:16:1a:99:e8:74:16:2a:56:6b:99:43:
                    18:04:44:e3:f2:c9:13:09:ee:d7:59:cb:bb:b1:ea:
                    b1:ec:c5:c7:1e:05:fc:d8:19:50:bd:9b:2e:ae:30:
                    fc:7a:1c:f1:23:18:2b:d8:80:dc:f7:90:38:4a:5f:
                    34:09:67:87:3c:9b:cc:a6:67:5e:b6:6d:90:0b:eb:
                    4c:98:81:f1:73:fc:53:a8:d1:d8:fe:71:37:e1:05:
                    f2:e5:5e:d8:c6:af:62:54:ac:49:17:2c:c0:5b:b6:
                    68:30:4e:55:13:34:e0:7a:f3:54:4a:45:7e:35:bf:
                    ef:b5:d3:05:36:df:85:ec:43:98:88:ad:91:9c:5f:
                    e2:a8:2b:bc:d6:46:96:93:55:9f:91:6d:62:5c:8c:
                    91:fc:fb:88:86:1e:46:03:75:3b:8f:26:37:13:c3:
                    6b:94:73:8e:9d:79:e9:ae:56:72:85:05:f7:99:8d:
                    77:1e:6f:1b:25:30:93:4d:42:a0:d1:a8:65:95:93:
                    bd:4c:e5:65:ab:c0:96:bd:74:81:f3:af:23:a7:bf:
                    7f:a1:e4:a5:8b:cb:9e:d6:44:83:81:12:ce:f4:7d:
                    1f:03:46:e5:b7:13:54:c5:e0:6b:51:e8:ac:16:f9:
                    1d:83:2c:10:cc:14:97:8c:10:74:10:5c:71:99:19:
                    7a:9e:7b:63:d0:bd:89:de:15:27:67:bf:1c:fc:8c:
                    b9:e8:78:36:85:51:f9:bc:50:18:54:89:e8:c8:e0:
                    96:28:2b:a6:89:64:da:19:c4:83:41:e0:7f:a4:99:
                    87:94:cb:f4:ef:9f:79:a1:46:96:37:79:ff:fc:bf:
                    82:36:8d:e3:b9:75:c4:e0:1a:90:ca:7f:fb:35:0d:
                    8e:6f:67:7b:42:f6:ee:52:90:4c:b0:de:59:d6:45:
                    0f:9f:55:4c:ed:30:31:70:9d:58:37:17:a4:0f:95:
                    68:e1:d2:93:d4:05:c9:76:66:ee:7d:78:23:db:3f:
                    fa:f9:f7:32:7f:49:f0:7a:f5:19:bf:14:36:d5:98:
                    a7:06:6e:2e:df:12:96:f9:da:6a:9b:32:25:ec:06:
                    5b:63:cd:cd:1e:51:80:14:3b:6e:7d:34:04:29:e7:
                    37:35:a2:f0:4e:ae:f9:6d:57:a7:f6:db:0e:15:06:
                    a0:bf:64:fb:6a:ec:7f:06:be:fb:44:c1:04:3e:28:
                    7c:04:c8:d4:67:d3:dd:05:e9:85:5c:08:fd:eb:f6:
                    d3:e0:a3:18:6d:e5:8c:23:c4:6a:9c:e8:61:01:ed:
                    6c:cb:24:09:b0:e0:59:57:b8:df:1b:b7:9f:3a:c9:
                    d0:bd:1f:76:af:df:0e:59:7a:e4:2f:49:a5:36:82:
                    b9:b0:7f
                Exponent: 65537 (0x10001)
        X509v3 extensions:
            X509v3 Subject Key Identifier: 
                14:67:7C:C3:98:BE:CD:27:30:1B:20:47:AE:78:B5:40:B1:9E:3B:47
            X509v3 Authority Key Identifier: 
                keyid:62:F2:80:D3:EF:CA:E0:E5:41:19:56:34:F1:30:6F:B7:D6:FD:94:AA
                DirName:/CN=CA1_sha256_4096_65537_v3_ca
                serial:50:7F:02:AD:54:29:1A:B8:14:9B:E8:70:7D:7D:66:0C:CD:47:F5:D8
            X509v3 Basic Constraints: critical
                CA:TRUE
            X509v3 Key Usage: 
                Certificate Sign
    Signature Algorithm: sha256WithRSAEncryption
    Signature Value:
        59:54:7d:6d:81:60:c7:b7:00:24:53:09:8b:d9:e8:f9:de:81:
        eb:9e:55:c4:43:ab:80:77:6d:3c:a6:32:6c:2a:71:a6:a6:89:
        f0:6c:c8:34:8f:d5:ae:0b:97:ba:ce:4f:00:31:00:40:5d:d8:
        59:b7:8a:50:b8:93:3f:8f:18:d8:ef:07:69:3c:a7:6b:e1:7a:
        38:37:c5:b6:12:3f:1b:ce:ac:d6:9b:21:84:f9:3a:c7:15:d9:
        c1:2f:93:5b:ed:c0:4f:a5:09:20:4c:a1:0e:46:6b:ee:e6:de:
        b5:23:16:96:19:a2:03:2e:a7:c9:80:85:3c:21:5a:c3:60:0d:
        e9:27:fb:3f:81:21:93:3f:cb:ed:ca:50:e4:57:cb:6c:bc:42:
        ee:b2:42:0c:c2:ca:0f:2d:e6:dc:b8:be:82:d1:f2:f9:85:05:
        58:b9:8c:83:17:cf:48:c3:9e:4e:c2:ff:f1:35:2b:12:aa:9b:
        36:33:12:55:7f:30:ad:75:1c:53:09:c6:ed:ac:02:7b:87:4e:
        37:8b:77:12:f2:48:4a:5b:a4:d6:23:a6:72:01:e6:0f:3b:e6:
        0d:df:47:8d:c5:24:a5:45:2c:39:fa:53:c5:a5:a6:b7:57:57:
        71:e1:fb:47:cb:d4:52:cb:64:52:6a:c0:e4:22:d8:16:54:55:
        1e:e4:0a:c4:a0:6c:13:88:fd:b2:e6:b6:29:b6:0c:d2:8b:b9:
        a4:14:49:45:f4:6a:95:0e:02:74:61:1a:39:d6:b4:2d:de:36:
        1e:01:96:d5:e3:1a:4b:b6:6d:b5:15:2d:40:bc:e8:6c:b0:b6:
        51:2a:97:cc:0f:80:25:38:2a:4b:45:61:c9:98:f8:fa:87:9b:
        fc:24:c7:79:4b:e9:62:d7:0e:70:56:f5:3d:07:c1:63:30:bd:
        cf:d9:46:8e:06:90:84:70:4b:00:26:a4:a1:1c:99:e7:1f:82:
        7e:09:c7:97:92:7d:37:77:52:0f:96:a1:e2:e6:bf:e4:12:4a:
        22:ae:cd:0f:93:a8:88:6c:7c:77:c7:6f:96:45:79:12:df:91:
        e6:96:a2:32:4d:a1:3d:25:5c:eb:7a:19:3a:21:e0:d3:bf:7d:
        f0:f3:67:a2:0e:e1:33:1c:41:47:8f:d8:9a:62:eb:15:e6:00:
        38:f6:8f:ae:8e:86:f9:a6:2d:f2:d5:6b:22:7f:a5:e8:53:48:
        3b:f5:dd:5a:a4:61:09:76:a8:1f:f2:20:48:a8:47:16:f4:f2:
        1b:27:c8:63:a1:59:cf:c4:df:42:8b:2c:21:4b:40:3c:b5:1a:
        d0:64:83:5b:93:29:80:71:a2:4b:c0:f0:78:7c:a9:11:ec:57:
        ec:ed:26:ed:df:6d:a0:ca
-----BEGIN CERTIFICATE-----
MIIFbzCCA1egAwIBAgIEEjRWeDANBgkqhkiG9w0BAQsFADAmMSQwIgYDVQQDFBtD
QTFfc2hhMjU2XzQwOTZfNjU1MzdfdjNfY2EwHhcNMjYwNDIyMTMxMDE0WhcNNDYw
NDE3MTMxMDE0WjAnMSUwIwYDVQQDDBxTUksxX3NoYTI1Nl80MDk2XzY1NTM3X3Yz
X2NhMIICIjANBgkqhkiG9w0BAQEFAAOCAg8AMIICCgKCAgEA4hzuFhqZ6HQWKlZr
mUMYBETj8skTCe7XWcu7seqx7MXHHgX82BlQvZsurjD8ehzxIxgr2IDc95A4Sl80
CWeHPJvMpmdetm2QC+tMmIHxc/xTqNHY/nE34QXy5V7Yxq9iVKxJFyzAW7ZoME5V
EzTgevNUSkV+Nb/vtdMFNt+F7EOYiK2RnF/iqCu81kaWk1WfkW1iXIyR/PuIhh5G
A3U7jyY3E8NrlHOOnXnprlZyhQX3mY13Hm8bJTCTTUKg0ahllZO9TOVlq8CWvXSB
868jp79/oeSli8ue1kSDgRLO9H0fA0bltxNUxeBrUeisFvkdgywQzBSXjBB0EFxx
mRl6nntj0L2J3hUnZ78c/Iy56Hg2hVH5vFAYVInoyOCWKCumiWTaGcSDQeB/pJmH
lMv07595oUaWN3n//L+CNo3juXXE4BqQyn/7NQ2Ob2d7QvbuUpBMsN5Z1kUPn1VM
7TAxcJ1YNxekD5Vo4dKT1AXJdmbufXgj2z/6+fcyf0nwevUZvxQ21ZinBm4u3xKW
+dpqmzIl7AZbY83NHlGAFDtufTQEKec3NaLwTq75bVen9tsOFQagv2T7aux/Br77
RMEEPih8BMjUZ9PdBemFXAj96/bT4KMYbeWMI8RqnOhhAe1syyQJsOBZV7jfG7ef
OsnQvR92r98OWXrkL0mlNoK5sH8CAwEAAaOBozCBoDAdBgNVHQ4EFgQUFGd8w5i+
zScwGyBHrni1QLGeO0cwYQYDVR0jBFowWIAUYvKA0+/K4OVBGVY08TBvt9b9lKqh
KqQoMCYxJDAiBgNVBAMUG0NBMV9zaGEyNTZfNDA5Nl82NTUzN192M19jYYIUUH8C
rVQpGrgUm+hwfX1mDM1H9dgwDwYDVR0TAQH/BAUwAwEB/zALBgNVHQ8EBAMCAgQw
DQYJKoZIhvcNAQELBQADggIBAFlUfW2BYMe3ACRTCYvZ6PnegeueVcRDq4B3bTym
MmwqcaamifBsyDSP1a4Ll7rOTwAxAEBd2Fm3ilC4kz+PGNjvB2k8p2vhejg3xbYS
PxvOrNabIYT5OscV2cEvk1vtwE+lCSBMoQ5Ga+7m3rUjFpYZogMup8mAhTwhWsNg
Dekn+z+BIZM/y+3KUORXy2y8Qu6yQgzCyg8t5ty4voLR8vmFBVi5jIMXz0jDnk7C
//E1KxKqmzYzElV/MK11HFMJxu2sAnuHTjeLdxLySEpbpNYjpnIB5g875g3fR43F
JKVFLDn6U8WlprdXV3Hh+0fL1FLLZFJqwOQi2BZUVR7kCsSgbBOI/bLmtim2DNKL
uaQUSUX0apUOAnRhGjnWtC3eNh4BltXjGku2bbUVLUC86GywtlEql8wPgCU4KktF
YcmY+PqHm/wkx3lL6WLXDnBW9T0HwWMwvc/ZRo4GkIRwSwAmpKEcmecfgn4Jx5eS
fTd3Ug+WoeLmv+QSSiKuzQ+TqIhsfHfHb5ZFeRLfkeaWojJNoT0lXOt6GToh4NO/
ffDzZ6IO4TMcQUeP2Jpi6xXmADj2j66OhvmmLfLVayJ/pehTSDv13VqkYQl2qB/y
IEioRxb08hsnyGOhWc/E30KLLCFLQDy1GtBkg1uTKYBxokvA8Hh8qRHsV+ztJu3f
baDK
-----END CERTIFICATE-----
