Certificate:
    Data:
        Version: 3 (0x2)
        Serial Number: 305419902 (0x1234567e)
        Signature Algorithm: sha256WithRSAEncryption
        Issuer: CN=CA1_sha256_4096_65537_v3_ca
        Validity
            Not Before: Apr 22 13:10:17 2026 GMT
            Not After : Apr 17 13:10:17 2046 GMT
        Subject: CN=SRK3_sha256_4096_65537_v3_ca
        Subject Public Key Info:
            Public Key Algorithm: rsaEncryption
                Public-Key: (4096 bit)
                Modulus:
                    00:c5:df:13:1f:ae:03:54:cf:3c:e1:bc:cd:70:4d:
                    62:8d:bb:90:a1:d0:be:59:08:a3:4b:59:16:e1:eb:
                    7b:85:04:a6:24:a2:b4:59:42:95:f8:62:b5:d0:f5:
                    75:64:6c:4d:d0:ab:cf:d4:8a:96:f9:03:e5:c2:1d:
                    19:e9:45:46:fd:1a:2f:d6:17:34:0a:91:2f:40:35:
                    a3:70:c5:c1:6e:9e:0d:f1:12:a7:d1:e6:26:77:49:
                    8a:25:4d:b6:c3:8c:e4:42:ba:e5:9f:dc:8b:65:d3:
                    65:c0:94:f7:31:36:f7:f0:5f:1d:8f:16:fc:7e:b9:
                    de:9e:a6:f0:8e:b4:4b:4e:52:2a:3f:69:c5:81:70:
                    39:09:52:b7:24:14:87:4e:e0:a9:9c:23:e5:ca:7b:
                    17:7e:16:d5:7c:8f:d4:6b:6f:47:51:14:82:27:2f:
                    23:9a:76:8f:81:97:7a:b4:d8:1a:02:65:dd:ff:c6:
                    7c:17:b5:30:99:42:4d:f3:25:b9:f8:ee:aa:10:f5:
                    9a:ef:97:8e:ab:2d:cb:d3:54:d7:50:15:33:02:bd:
                    02:ae:73:42:1b:15:4f:9c:27:c9:3e:fe:06:ee:2e:
                    4e:c2:d9:22:b2:cc:65:8f:6c:f3:e9:c7:70:1a:d4:
                    68:fc:2c:c1:6a:9e:82:3d:41:df:8c:b5:da:e0:d2:
                    63:8b:e4:94:be:1b:2d:fd:a7:41:bd:e8:bf:fd:46:
                    83:91:28:93:54:06:5a:11:a2:18:20:ce:bf:73:5e:
                    6f:b1:94:33:0f:f2:8a:4f:72:3a:11:08:c1:63:6a:
                    86:f4:06:a8:79:a4:f7:5a:28:7a:92:1b:a8:f0:0a:
                    1d:31:ec:1e:21:47:04:20:ab:21:15:ae:aa:8c:6d:
                    ae:19:35:dd:e5:f7:76:fe:f9:2c:f6:54:e5:ad:56:
                    2d:01:dc:e4:d7:57:3c:07:6e:2b:59:06:0f:ae:9a:
                    2a:56:40:a7:47:71:d6:9a:ef:41:59:2a:18:70:cf:
                    6a:7b:7e:85:fc:44:5a:82:ac:a1:3e:66:bc:13:23:
                    61:17:00:0d:0b:5e:59:1a:63:1e:98:c3:55:d4:36:
                    39:60:80:02:4b:54:b1:bb:22:60:ac:76:8c:f1:f7:
                    2c:2c:69:f2:cd:ec:30:22:a3:d5:28:fe:8f:ff:09:
                    c7:fb:be:9b:2d:8c:84:7b:f1:a1:c2:8c:ba:da:b8:
                    31:95:cd:02:d6:ff:de:68:72:1a:9f:42:36:54:a5:
                    22:e4:82:8c:2d:2e:54:20:1f:fb:24:eb:08:49:b8:
                    3b:6b:d3:49:7a:a8:38:21:de:6a:12:ea:93:19:50:
                    ac:77:ed:11:2c:64:ea:e3:b2:1b:2e:4d:ce:e2:e9:
                    fc:81:af
                Exponent: 65537 (0x10001)
        X509v3 extensions:
            X509v3 Subject Key Identifier: 
                3B:2F:59:FF:97:D6:FA:6F:96:38:7D:77:DD:47:0F:F5:85:8B:C6:C2
            X509v3 Authority Key Identifier: 
                keyid:62:F2:80:D3:EF:CA:E0:E5:41:19:56:34:F1:30:6F:B7:D6:FD:94:AA
                DirName:/CN=CA1_sha256_4096_65537_v3_ca
                serial:50:7F:02:AD:54:29:1A:B8:14:9B:E8:70:7D:7D:66:0C:CD:47:F5:D8
            X509v3 Basic Constraints: critical
                CA:TRUE
            X509v3 Key Usage: 
                Certificate Sign
    Signature Algorithm: sha256WithRSAEncryption
    Signature Value:
        0e:b5:fd:f8:f0:f0:b5:60:42:27:18:4c:74:a5:68:88:85:56:
        02:4e:a6:04:7b:c1:cf:3b:4d:db:94:be:03:d8:00:73:d4:a8:
        38:fe:bd:84:14:39:f8:c7:37:09:87:58:5e:14:69:a1:83:d4:
        f4:b8:ed:6f:da:ed:2d:1e:84:36:b3:03:c6:b5:1f:7f:35:76:
        30:55:52:b5:7d:bb:b9:cd:4a:35:5a:90:98:78:02:76:6a:0c:
        b1:91:0c:03:1c:8e:ab:8b:ce:2b:43:75:2b:87:d0:b9:90:e2:
        d6:da:a8:8e:26:32:35:8e:60:38:ef:0b:fc:8c:b0:ec:90:74:
        fb:ee:16:2e:5e:ed:d1:fb:7e:6b:eb:5e:47:ee:8a:4d:0a:62:
        ad:9d:17:42:55:92:a6:f4:b5:a5:3f:3b:fa:64:36:16:f6:2c:
        1c:cf:38:d4:71:0e:c8:14:2e:f5:ed:07:9f:b1:a7:85:db:65:
        ad:1a:8b:d1:8a:4b:db:37:08:77:6c:6b:d3:1a:8e:c1:f7:97:
        8b:4c:5a:a0:f9:47:1e:73:39:a0:a2:70:c8:aa:7d:e6:12:4e:
        66:c8:bd:5f:42:3d:f7:64:24:30:21:f4:8d:03:3f:de:b8:d3:
        e9:75:2a:7e:28:93:85:9b:0e:bd:8e:2a:d1:a6:85:7e:9e:15:
        a4:42:ed:a7:b7:0e:3a:8a:46:00:67:96:ad:ff:2d:ce:86:30:
        cf:45:7a:24:a8:22:f3:95:86:1a:15:90:7d:63:65:98:57:93:
        fc:7a:a4:57:4d:21:c3:26:63:0a:70:97:f8:5a:02:db:8e:bf:
        43:3b:c4:55:d0:14:6d:18:6e:ec:69:b5:f8:4a:01:20:f2:65:
        b4:d7:bc:7d:d9:91:66:95:28:44:5d:58:8e:cf:df:c5:6a:bc:
        21:ea:6c:d4:0f:4b:97:bd:70:62:e7:d5:96:72:6e:d8:e1:ce:
        28:96:fb:f4:93:b8:05:fd:07:a6:7f:cb:a8:a1:1d:e3:52:0c:
        b7:5d:6e:76:4a:15:17:b0:40:de:ce:93:95:4c:14:5c:2e:94:
        89:06:12:0e:a5:b7:c8:41:33:48:d1:87:33:61:30:0b:64:98:
        13:b7:49:3f:75:ba:ae:9f:f3:bc:a8:80:fa:96:6b:6c:ef:9a:
        d8:85:22:00:a0:e0:8d:7d:93:a8:8a:6f:56:85:ca:61:48:1c:
        e6:b6:c7:35:7f:52:67:2f:69:7a:33:1a:ca:b5:01:8a:bf:5a:
        a2:de:46:a9:e2:d2:b0:85:93:5a:9b:9a:d8:d9:2c:36:d4:47:
        39:d0:13:40:2d:af:00:4e:d5:98:20:7e:1a:8a:fc:2f:ae:de:
        a7:48:6d:ec:7a:fe:be:b6
-----BEGIN CERTIFICATE-----
MIIFbzCCA1egAwIBAgIEEjRWfjANBgkqhkiG9w0BAQsFADAmMSQwIgYDVQQDFBtD
QTFfc2hhMjU2XzQwOTZfNjU1MzdfdjNfY2EwHhcNMjYwNDIyMTMxMDE3WhcNNDYw
NDE3MTMxMDE3WjAnMSUwIwYDVQQDDBxTUkszX3NoYTI1Nl80MDk2XzY1NTM3X3Yz
X2NhMIICIjANBgkqhkiG9w0BAQEFAAOCAg8AMIICCgKCAgEAxd8TH64DVM884bzN
cE1ijbuQodC+WQijS1kW4et7hQSmJKK0WUKV+GK10PV1ZGxN0KvP1IqW+QPlwh0Z
6UVG/Rov1hc0CpEvQDWjcMXBbp4N8RKn0eYmd0mKJU22w4zkQrrln9yLZdNlwJT3
MTb38F8djxb8frnenqbwjrRLTlIqP2nFgXA5CVK3JBSHTuCpnCPlynsXfhbVfI/U
a29HURSCJy8jmnaPgZd6tNgaAmXd/8Z8F7UwmUJN8yW5+O6qEPWa75eOqy3L01TX
UBUzAr0CrnNCGxVPnCfJPv4G7i5Owtkissxlj2zz6cdwGtRo/CzBap6CPUHfjLXa
4NJji+SUvhst/adBvei//UaDkSiTVAZaEaIYIM6/c15vsZQzD/KKT3I6EQjBY2qG
9AaoeaT3Wih6khuo8AodMeweIUcEIKshFa6qjG2uGTXd5fd2/vks9lTlrVYtAdzk
11c8B24rWQYPrpoqVkCnR3HWmu9BWSoYcM9qe36F/ERagqyhPma8EyNhFwANC15Z
GmMemMNV1DY5YIACS1SxuyJgrHaM8fcsLGnyzewwIqPVKP6P/wnH+76bLYyEe/Gh
woy62rgxlc0C1v/eaHIan0I2VKUi5IKMLS5UIB/7JOsISbg7a9NJeqg4Id5qEuqT
GVCsd+0RLGTq47IbLk3O4un8ga8CAwEAAaOBozCBoDAdBgNVHQ4EFgQUOy9Z/5fW
+m+WOH133UcP9YWLxsIwYQYDVR0jBFowWIAUYvKA0+/K4OVBGVY08TBvt9b9lKqh
KqQoMCYxJDAiBgNVBAMUG0NBMV9zaGEyNTZfNDA5Nl82NTUzN192M19jYYIUUH8C
rVQpGrgUm+hwfX1mDM1H9dgwDwYDVR0TAQH/BAUwAwEB/zALBgNVHQ8EBAMCAgQw
DQYJKoZIhvcNAQELBQADggIBAA61/fjw8LVgQicYTHSlaIiFVgJOpgR7wc87TduU
vgPYAHPUqDj+vYQUOfjHNwmHWF4UaaGD1PS47W/a7S0ehDazA8a1H381djBVUrV9
u7nNSjVakJh4AnZqDLGRDAMcjquLzitDdSuH0LmQ4tbaqI4mMjWOYDjvC/yMsOyQ
dPvuFi5e7dH7fmvrXkfuik0KYq2dF0JVkqb0taU/O/pkNhb2LBzPONRxDsgULvXt
B5+xp4XbZa0ai9GKS9s3CHdsa9MajsH3l4tMWqD5Rx5zOaCicMiqfeYSTmbIvV9C
PfdkJDAh9I0DP9640+l1Kn4ok4WbDr2OKtGmhX6eFaRC7ae3DjqKRgBnlq3/Lc6G
MM9FeiSoIvOVhhoVkH1jZZhXk/x6pFdNIcMmYwpwl/haAtuOv0M7xFXQFG0Ybuxp
tfhKASDyZbTXvH3ZkWaVKERdWI7P38VqvCHqbNQPS5e9cGLn1ZZybtjhziiW+/ST
uAX9B6Z/y6ihHeNSDLddbnZKFRewQN7Ok5VMFFwulIkGEg6lt8hBM0jRhzNhMAtk
mBO3ST91uq6f87yogPqWa2zvmtiFIgCg4I19k6iKb1aFymFIHOa2xzV/UmcvaXoz
Gsq1AYq/WqLeRqni0rCFk1qbmtjZLDbURznQE0AtrwBO1ZggfhqK/C+u3qdIbex6
/r62
-----END CERTIFICATE-----
